 load

 Timestamp is 53a5c112 (Sun Jun 22 02:29:54 2014)

 Preferred load address is 00400000

 Start         Length     Name                   Class
 0001:00000000 000000c4H .idata$5                CODE
 0001:000000c8 00000048H .rdata                  CODE
 0001:00000110 000014e0H .text                   CODE
 0001:000015f0 00000004H .text$0                 CODE
 0001:00001600 000006b0H .text$1                 CODE
 0001:00001cb0 00000004H .text$2                 CODE
 0001:00001cb4 00000014H .idata$2                CODE
 0001:00001cc8 00000014H .idata$3                CODE
 0001:00001cdc 000000c4H .idata$4                CODE
 0001:00001da0 000002b8H .idata$6                CODE
 0001:00002058 00000000H .edata                  CODE
 0002:00000000 00000004H .data                   DATA
 0002:00000008 00000a50H .bss                    DATA
 0003:00000000 00000118H .rsrc$01                DATA
 0003:00000120 000009fcH .rsrc$02                DATA

  Address         Publics by Value              Rva+Base     Lib:Object

 0001:00000000       __imp____vba@0037EAFC      00401000     load1.OBJ
 0001:00000000       __imp_@__vba@0037EAFC      00401000     load1.OBJ
 0001:00000004       __imp___CIcos              00401004     load1.OBJ
 0001:00000008       __imp___adj_fptan          00401008     load1.OBJ
 0001:0000000c       __imp____vbaFreeVar        0040100c     load1.OBJ
 0001:0000000c       __imp_@__vbaFreeVar        0040100c     load1.OBJ
 0001:00000010       __imp____vbaEnd            00401010     load1.OBJ
 0001:00000010       __imp_@__vbaEnd            00401010     load1.OBJ
 0001:00000014       __imp____vbaFreeVarList    00401014     load1.OBJ
 0001:00000014       __imp_@__vbaFreeVarList    00401014     load1.OBJ
 0001:00000018       __imp___adj_fdiv_m64       00401018     load1.OBJ
 0001:0000001c       __imp___adj_fprem1         0040101c     load1.OBJ
 0001:00000020       __imp_@__vbaStrCat         00401020     load1.OBJ
 0001:00000020       __imp____vbaStrCat         00401020     load1.OBJ
 0001:00000024       __imp____vbaSetSystemError 00401024     load1.OBJ
 0001:00000024       __imp_@__vbaSetSystemError 00401024     load1.OBJ
 0001:00000028       __imp____vbaHresultCheckObj 00401028     load1.OBJ
 0001:00000028       __imp_@__vbaHresultCheckObj 00401028     load1.OBJ
 0001:0000002c       __imp___adj_fdiv_m32       0040102c     load1.OBJ
 0001:00000030       __imp_@__vbaObjSet         00401030     load1.OBJ
 0001:00000030       __imp____vbaObjSet         00401030     load1.OBJ
 0001:00000034       __imp_@__vba@0037EBCC      00401034     load1.OBJ
 0001:00000034       __imp____vba@0037EBCC      00401034     load1.OBJ
 0001:00000038       __imp___adj_fdiv_m16i      00401038     load1.OBJ
 0001:0000003c       __imp___adj_fdivr_m16i     0040103c     load1.OBJ
 0001:00000040       __imp___CIsin              00401040     load1.OBJ
 0001:00000044       __imp____vbaChkstk         00401044     load1.OBJ
 0001:0000004c       __imp_@__vbaStrCmp         0040104c     load1.OBJ
 0001:0000004c       __imp____vbaStrCmp         0040104c     load1.OBJ
 0001:00000054       __imp___adj_fpatan         00401054     load1.OBJ
 0001:0000005c       __imp_@__vba@0037EF64      0040105c     load1.OBJ
 0001:0000005c       __imp____vba@0037EF64      0040105c     load1.OBJ
 0001:00000060       __imp___CIsqrt             00401060     load1.OBJ
 0001:00000068       __imp____vbaExceptHandler  00401068     load1.OBJ
 0001:0000006c       __imp___adj_fprem          0040106c     load1.OBJ
 0001:00000070       __imp___adj_fdivr_m64      00401070     load1.OBJ
 0001:00000074       __imp____vbaFPException    00401074     load1.OBJ
 0001:00000078       __imp___CIlog              00401078     load1.OBJ
 0001:0000007c       __imp_@__vbaNew2           0040107c     load1.OBJ
 0001:0000007c       __imp____vbaNew2           0040107c     load1.OBJ
 0001:00000080       __imp___adj_fdiv_m32i      00401080     load1.OBJ
 0001:00000084       __imp___adj_fdivr_m32i     00401084     load1.OBJ
 0001:00000088       __imp____vbaFreeStrList    00401088     load1.OBJ
 0001:00000088       __imp_@__vbaFreeStrList    00401088     load1.OBJ
 0001:0000008c       __imp___adj_fdivr_m32      0040108c     load1.OBJ
 0001:00000090       __imp___adj_fdiv_r         00401090     load1.OBJ
 0001:00000098       __imp____vba@0037F084      00401098     load1.OBJ
 0001:00000098       __imp_@__vba@0037F084      00401098     load1.OBJ
 0001:0000009c       __imp_@__vbaVarDup         0040109c     load1.OBJ
 0001:0000009c       __imp____vbaVarDup         0040109c     load1.OBJ
 0001:000000a0       __imp___CIatan             004010a0     load1.OBJ
 0001:000000a4       __imp____vbaCastObj        004010a4     load1.OBJ
 0001:000000a4       __imp_@__vbaCastObj        004010a4     load1.OBJ
 0001:000000a8       __imp____vbaStrMove        004010a8     load1.OBJ
 0001:000000a8       __imp_@__vbaStrMove        004010a8     load1.OBJ
 0001:000000ac       __imp___allmul             004010ac     load1.OBJ
 0001:000000b0       __imp___CItan              004010b0     load1.OBJ
 0001:000000b4       __imp___CIexp              004010b4     load1.OBJ
 0001:000000b8       __imp_@__vbaFreeObj        004010b8     load1.OBJ
 0001:000000b8       __imp____vbaFreeObj        004010b8     load1.OBJ
 0001:000000bc       __imp_@__vbaFreeStr        004010bc     load1.OBJ
 0001:000000bc       __imp____vbaFreeStr        004010bc     load1.OBJ
 0001:00000110       VB@TEXT                    00401110     load1.OBJ
 0001:00000110       ___vbaChkstk               00401110     load1.OBJ
 0001:00000116       ___vbaExceptHandler        00401116     load1.OBJ
 0001:0000011c       ___vbaFPException          0040111c     load1.OBJ
 0001:00000122       __adj_fdiv_m16i            00401122     load1.OBJ
 0001:00000128       __adj_fdiv_m32             00401128     load1.OBJ
 0001:0000012e       __adj_fdiv_m32i            0040112e     load1.OBJ
 0001:00000134       __adj_fdiv_m64             00401134     load1.OBJ
 0001:0000013a       __adj_fdiv_r               0040113a     load1.OBJ
 0001:00000140       __adj_fdivr_m16i           00401140     load1.OBJ
 0001:00000146       __adj_fdivr_m32            00401146     load1.OBJ
 0001:0000014c       __adj_fdivr_m32i           0040114c     load1.OBJ
 0001:00000152       __adj_fdivr_m64            00401152     load1.OBJ
 0001:00000158       __adj_fpatan               00401158     load1.OBJ
 0001:0000015e       __adj_fprem                0040115e     load1.OBJ
 0001:00000164       __adj_fprem1               00401164     load1.OBJ
 0001:0000016a       __adj_fptan                0040116a     load1.OBJ
 0001:00000170       __CIatan                   00401170     load1.OBJ
 0001:00000176       __CIcos                    00401176     load1.OBJ
 0001:0000017c       __CIexp                    0040117c     load1.OBJ
 0001:00000182       __CIlog                    00401182     load1.OBJ
 0001:00000188       __CIsin                    00401188     load1.OBJ
 0001:0000018e       __CIsqrt                   0040118e     load1.OBJ
 0001:00000194       __CItan                    00401194     load1.OBJ
 0001:0000019a       __allmul                   0040119a     load1.OBJ
 0001:000001a6       ___vba@0037EAFC            004011a6     load1.OBJ
 0001:000001a6       @__vba@0037EAFC            004011a6     load1.OBJ
 0001:000001ac       @__vbaFreeVarList          004011ac     load1.OBJ
 0001:000001ac       ___vbaFreeVarList          004011ac     load1.OBJ
 0001:000001b2       ___vbaVarDup               004011b2     load1.OBJ
 0001:000001b2       @__vbaVarDup               004011b2     load1.OBJ
 0001:000001b8       ___vba@0037EBCC            004011b8     load1.OBJ
 0001:000001b8       @__vba@0037EBCC            004011b8     load1.OBJ
 0001:000001be       @__vbaEnd                  004011be     load1.OBJ
 0001:000001be       ___vbaEnd                  004011be     load1.OBJ
 0001:000001c4       @__vbaFreeStrList          004011c4     load1.OBJ
 0001:000001c4       ___vbaFreeStrList          004011c4     load1.OBJ
 0001:000001ca       ___vbaStrCat               004011ca     load1.OBJ
 0001:000001ca       @__vbaStrCat               004011ca     load1.OBJ
 0001:000001d0       ___vba@0037EF64            004011d0     load1.OBJ
 0001:000001d0       @__vba@0037EF64            004011d0     load1.OBJ
 0001:000001d6       @__vbaStrCmp               004011d6     load1.OBJ
 0001:000001d6       ___vbaStrCmp               004011d6     load1.OBJ
 0001:000001dc       @__vbaFreeStr              004011dc     load1.OBJ
 0001:000001dc       ___vbaFreeStr              004011dc     load1.OBJ
 0001:000001e2       ___vbaHresultCheckObj      004011e2     load1.OBJ
 0001:000001e2       @__vbaHresultCheckObj      004011e2     load1.OBJ
 0001:000001e8       @__vba@0037F084            004011e8     load1.OBJ
 0001:000001e8       ___vba@0037F084            004011e8     load1.OBJ
 0001:000001ee       @__vbaStrMove              004011ee     load1.OBJ
 0001:000001ee       ___vbaStrMove              004011ee     load1.OBJ
 0001:000001f4       ___vbaFreeVar              004011f4     load1.OBJ
 0001:000001f4       @__vbaFreeVar              004011f4     load1.OBJ
 0001:000001fa       @__vbaFreeObj              004011fa     load1.OBJ
 0001:000001fa       ___vbaFreeObj              004011fa     load1.OBJ
 0001:00000200       @__vbaNew2                 00401200     load1.OBJ
 0001:00000200       ___vbaNew2                 00401200     load1.OBJ
 0001:00000206       ___vbaCastObj              00401206     load1.OBJ
 0001:00000206       @__vbaCastObj              00401206     load1.OBJ
 0001:0000020c       @__vbaObjSet               0040120c     load1.OBJ
 0001:0000020c       ___vbaObjSet               0040120c     load1.OBJ
 0001:00000212       @__vbaSetSystemError       00401212     load1.OBJ
 0001:00000212       ___vbaSetSystemError       00401212     load1.OBJ
 0001:00000230       ___vbaS                    00401230     load1.OBJ
 0001:00000b54       ___vba@057F004C            00401b54     load1.OBJ
 0001:00000c70       ___vba@0037D774            00401c70     load1.OBJ
 0001:0000109c       ___vba@0033FE64            0040209c     load1.OBJ
 0001:00001154       ___vba@0033FEBC            00402154     load1.OBJ
 0001:00001158       ___vba@0033FEC4            00402158     load1.OBJ
 0001:00001164       ___vba@0033FED4            00402164     load1.OBJ
 0001:0000116c       ___vba@0033FEE0            0040216c     load1.OBJ
 0001:00001174       ___vba@0033FEEC            00402174     load1.OBJ
 0001:00001184       ___vba@0033FF00            00402184     load1.OBJ
 0001:00001194       ___vba@0033FF14            00402194     load1.OBJ
 0001:000011a4       ___vba@0033FF28            004021a4     load1.OBJ
 0001:000011b4       ___vba@0033FF3C            004021b4     load1.OBJ
 0001:000011c4       ___vba@0033FF50            004021c4     load1.OBJ
 0001:000011cc       ___vba@0033FF5C            004021cc     load1.OBJ
 0001:000011dc       ___vba@0033FF70            004021dc     load1.OBJ
 0001:000011e0       ___vba@0033FF78            004021e0     load1.OBJ
 0001:00001208       ___vba@0033FFA4            00402208     load1.OBJ
 0001:00001218       ___vba@0033FFB8            00402218     load1.OBJ
 0001:00001220       ___vba@0033FFC4            00402220     load1.OBJ
 0001:00001230       ___vba@0033FFD4            00402230     load1.OBJ
 0001:0000123c       ___vba@0033FFE4            0040223c     load1.OBJ
 0001:00001264       ___vba@0033FFFC            00402264     load1.OBJ
 0001:00001280       ___vba@00340034            00402280     load1.OBJ
 0001:0000128c       ___vba@00340044            0040228c     load1.OBJ
 0001:000012a0       ___vba@0037E68C            004022a0     load1.OBJ
 0001:000012ac       ___vba@0037E69C            004022ac     load1.OBJ
 0001:000012b8       ___vba@0037E6AC            004022b8     load1.OBJ
 0001:000012bc       ___vba@0037E6B8            004022bc     load1.OBJ
 0001:000012d0       ___vba@0037E6CC            004022d0     load1.OBJ
 0001:000012d4       ___vba@0037E6D8            004022d4     load1.OBJ
 0001:000012e4       ___vba@0037E6EC            004022e4     load1.OBJ
 0001:000012f4       ___vba@0037E700            004022f4     load1.OBJ
 0001:00001304       ___vba@0037E714            00402304     load1.OBJ
 0001:00001318       ___vba@0037E728            00402318     load1.OBJ
 0001:00001320       ___vba@0037E734            00402320     load1.OBJ
 0001:0000133c       ___vba@0037E754            0040233c     load1.OBJ
 0001:000013d8       ___vba@0037E7F4            004023d8     load1.OBJ
 0001:000013e4       ___vba@0037E804            004023e4     load1.OBJ
 0001:000013fc       ___vba@0037E820            004023fc     load1.OBJ
 0001:00001418       ___vba@0037E840            00402418     load1.OBJ
 0001:00001434       ___vba@0037E860            00402434     load1.OBJ
 0001:0000145c       ___vba@0037EADC            0040245c     load1.OBJ
 0001:00001464       ___vba@0037EAEC            00402464     load1.OBJ
 0001:00001470       ___vba@0037EB34            00402470     load1.OBJ
 0001:00001484       ___vba@0037EB84            00402484     load1.OBJ
 0001:00001490       ___vba@0037EC04            00402490     load1.OBJ
 0001:0000149c       ___vba@0037EC4C            0040249c     load1.OBJ
 0001:000014b8       ___vba@0037ECA8            004024b8     load1.OBJ
 0001:000014c4       ___vba@0037EF9C            004024c4     load1.OBJ
 0001:000014d0       ___vba@0037EFE4            004024d0     load1.OBJ
 0001:000014e0       ___vba@0037F030            004024e0     load1.OBJ
 0001:000014f8       ___vba@0037F0BC            004024f8     load1.OBJ
 0001:00001508       ___vba@0037F108            00402508     load1.OBJ
 0001:00001518       ___vba@0037F18C            00402518     load1.OBJ
 0001:00001528       ___vba@0037F1D8            00402528     load1.OBJ
 0001:00001534       ___vba@0037F220            00402534     load1.OBJ
 0001:00001544       ___vba@0037F26C            00402544     load1.OBJ
 0001:00001550       ___vba@0037F2B4            00402550     load1.OBJ
 0001:00001570       ___vba@003402A4            00402570     load1.OBJ
 0001:00001598       ___vba@003402D0            00402598     load1.OBJ
 0001:000015a4       ___vba@003402E0            004025a4     load1.OBJ
 0001:000015b0       ___vba@0037CED4            004025b0     load1.OBJ
 0001:000015f0       VB@BTXT                    004025f0     load1.OBJ
 0001:00001600       ?Form_Load@load@@AAGXXZ    00402600 f   load.OBJ
 0001:00001b90       ?AlwaysTop@Module1@@AAGXXZ 00402b90 f   Module1.OBJ
 0001:00001cb0       VB@ETXT                    00402cb0     load1.OBJ
 0002:00000000       __adjust_fdiv              00404000     VBAEXE6:natsupp.obj
 0002:00000008       VB@BSS                     00404008     load1.OBJ
 0002:00000010       ___vba@003400A0            00404010     load1.OBJ
 0002:00000024       _Module1                   00404024     load1.OBJ
 0002:00000344       ___vba@0037EC9C            00404344     load1.OBJ
 0002:0000035c       ___vba@0602674C            0040435c     load1.OBJ

 entry point at        0001:00000230

 Static symbols

