 PC2014

 Timestamp is 5319d728 (Fri Mar 07 23:26:48 2014)

 Preferred load address is 00400000

 Start         Length     Name                   Class
 0001:00000000 00000210H .idata$5                CODE
 0001:00000210 000006a8H .rdata                  CODE
 0001:000008c0 0001824cH .text                   CODE
 0001:00018b10 00000004H .text$0                 CODE
 0001:00018b20 0000e480H .text$1                 CODE
 0001:00026fa0 00000004H .text$2                 CODE
 0001:00026fa4 00000014H .idata$2                CODE
 0001:00026fb8 00000014H .idata$3                CODE
 0001:00026fcc 00000210H .idata$4                CODE
 0001:000271dc 000006a0H .idata$6                CODE
 0001:0002787c 00000000H .edata                  CODE
 0002:00000000 00000004H .data                   DATA
 0002:00000008 00007144H .bss                    DATA
 0003:00000000 00000118H .rsrc$01                DATA
 0003:00000120 00000a2cH .rsrc$02                DATA

  Address         Publics by Value              Rva+Base     Lib:Object

 0001:00000000       __imp____vbaVarSub         00401000     PC2014.OBJ
 0001:00000000       __imp_@__vbaVarSub         00401000     PC2014.OBJ
 0001:00000004       __imp____vba@060E0E90      00401004     PC2014.OBJ
 0001:00000004       __imp_@__vba@060E0E90      00401004     PC2014.OBJ
 0001:00000008       __imp____vba@060E0E0C      00401008     PC2014.OBJ
 0001:00000008       __imp_@__vba@060E0E0C      00401008     PC2014.OBJ
 0001:0000000c       __imp___CIcos              0040100c     PC2014.OBJ
 0001:00000010       __imp___adj_fptan          00401010     PC2014.OBJ
 0001:00000014       __imp_@__vbaStrI4          00401014     PC2014.OBJ
 0001:00000014       __imp____vbaStrI4          00401014     PC2014.OBJ
 0001:00000018       __imp_@__vbaVarMove        00401018     PC2014.OBJ
 0001:00000018       __imp____vbaVarMove        00401018     PC2014.OBJ
 0001:0000001c       __imp_@__vbaFreeVar        0040101c     PC2014.OBJ
 0001:0000001c       __imp____vbaFreeVar        0040101c     PC2014.OBJ
 0001:00000020       __imp____vbaLenBstr        00401020     PC2014.OBJ
 0001:00000020       __imp_@__vbaLenBstr        00401020     PC2014.OBJ
 0001:00000024       __imp____vbaLateIdCall     00401024     PC2014.OBJ
 0001:00000024       __imp_@__vbaLateIdCall     00401024     PC2014.OBJ
 0001:00000028       __imp____vbaStrVarMove     00401028     PC2014.OBJ
 0001:00000028       __imp_@__vbaStrVarMove     00401028     PC2014.OBJ
 0001:0000002c       __imp____vbaFreeVarList    0040102c     PC2014.OBJ
 0001:0000002c       __imp_@__vbaFreeVarList    0040102c     PC2014.OBJ
 0001:00000030       __imp___adj_fdiv_m64       00401030     PC2014.OBJ
 0001:00000034       __imp____vbaFreeObjList    00401034     PC2014.OBJ
 0001:00000034       __imp_@__vbaFreeObjList    00401034     PC2014.OBJ
 0001:00000038       __imp_@__vba@06E57C1C      00401038     PC2014.OBJ
 0001:00000038       __imp____vba@06E57C1C      00401038     PC2014.OBJ
 0001:0000003c       __imp___adj_fprem1         0040103c     PC2014.OBJ
 0001:00000040       __imp____vbaRecAnsiToUni   00401040     PC2014.OBJ
 0001:00000040       __imp_@__vbaRecAnsiToUni   00401040     PC2014.OBJ
 0001:00000044       __imp_@__vba@06E578E8      00401044     PC2014.OBJ
 0001:00000044       __imp____vba@06E578E8      00401044     PC2014.OBJ
 0001:00000048       __imp_@__vbaStrCat         00401048     PC2014.OBJ
 0001:00000048       __imp____vbaStrCat         00401048     PC2014.OBJ
 0001:0000004c       __imp_@__vbaLsetFixstr     0040104c     PC2014.OBJ
 0001:0000004c       __imp____vbaLsetFixstr     0040104c     PC2014.OBJ
 0001:00000050       __imp_@__vbaSetSystemError 00401050     PC2014.OBJ
 0001:00000050       __imp____vbaSetSystemError 00401050     PC2014.OBJ
 0001:00000054       __imp____vbaHresultCheckObj 00401054     PC2014.OBJ
 0001:00000054       __imp_@__vbaHresultCheckObj 00401054     PC2014.OBJ
 0001:00000058       __imp___adj_fdiv_m32       00401058     PC2014.OBJ
 0001:0000005c       __imp____vbaAryVar         0040105c     PC2014.OBJ
 0001:0000005c       __imp_@__vbaAryVar         0040105c     PC2014.OBJ
 0001:00000060       __imp_@__vbaVarTstLe       00401060     PC2014.OBJ
 0001:00000060       __imp____vbaVarTstLe       00401060     PC2014.OBJ
 0001:00000064       __imp_@__vbaAryDestruct    00401064     PC2014.OBJ
 0001:00000064       __imp____vbaAryDestruct    00401064     PC2014.OBJ
 0001:00000068       __imp_@__vbaLateMemSt      00401068     PC2014.OBJ
 0001:00000068       __imp____vbaLateMemSt      00401068     PC2014.OBJ
 0001:0000006c       __imp_@__vba@06E57A64      0040106c     PC2014.OBJ
 0001:0000006c       __imp____vba@06E57A64      0040106c     PC2014.OBJ
 0001:00000070       __imp____vba@06E57B2C      00401070     PC2014.OBJ
 0001:00000070       __imp_@__vba@06E57B2C      00401070     PC2014.OBJ
 0001:00000074       __imp____vba@06EE88B4      00401074     PC2014.OBJ
 0001:00000074       __imp_@__vba@06EE88B4      00401074     PC2014.OBJ
 0001:00000078       __imp_@__vbaOnError        00401078     PC2014.OBJ
 0001:00000078       __imp____vbaOnError        00401078     PC2014.OBJ
 0001:0000007c       __imp____vbaObjSet         0040107c     PC2014.OBJ
 0001:0000007c       __imp_@__vbaObjSet         0040107c     PC2014.OBJ
 0001:00000080       __imp___adj_fdiv_m16i      00401080     PC2014.OBJ
 0001:00000084       __imp_@__vbaObjSetAddref   00401084     PC2014.OBJ
 0001:00000084       __imp____vbaObjSetAddref   00401084     PC2014.OBJ
 0001:00000088       __imp___adj_fdivr_m16i     00401088     PC2014.OBJ
 0001:0000008c       __imp____vbaVarIndexLoad   0040108c     PC2014.OBJ
 0001:0000008c       __imp_@__vbaVarIndexLoad   0040108c     PC2014.OBJ
 0001:00000090       __imp_@__vba@060E0AA4      00401090     PC2014.OBJ
 0001:00000090       __imp____vba@060E0AA4      00401090     PC2014.OBJ
 0001:00000094       __imp____vbaFpR4           00401094     PC2014.OBJ
 0001:00000094       __imp_@__vbaFpR4           00401094     PC2014.OBJ
 0001:00000098       __imp____vbaStrFixstr      00401098     PC2014.OBJ
 0001:00000098       __imp_@__vbaStrFixstr      00401098     PC2014.OBJ
 0001:0000009c       __imp_@__vba@06E57A2C      0040109c     PC2014.OBJ
 0001:0000009c       __imp____vba@06E57A2C      0040109c     PC2014.OBJ
 0001:000000a0       __imp____vbaBoolVar        004010a0     PC2014.OBJ
 0001:000000a0       __imp_@__vbaBoolVar        004010a0     PC2014.OBJ
 0001:000000a4       __imp_@__vbaBoolVarNull    004010a4     PC2014.OBJ
 0001:000000a4       __imp____vbaBoolVarNull    004010a4     PC2014.OBJ
 0001:000000a8       __imp_@__vbaFpR8           004010a8     PC2014.OBJ
 0001:000000a8       __imp____vbaFpR8           004010a8     PC2014.OBJ
 0001:000000ac       __imp___CIsin              004010ac     PC2014.OBJ
 0001:000000b0       __imp____vba@06E24FD4      004010b0     PC2014.OBJ
 0001:000000b0       __imp_@__vba@06E24FD4      004010b0     PC2014.OBJ
 0001:000000b4       __imp____vba@06E57DD0      004010b4     PC2014.OBJ
 0001:000000b4       __imp_@__vba@06E57DD0      004010b4     PC2014.OBJ
 0001:000000b8       __imp____vbaErase          004010b8     PC2014.OBJ
 0001:000000b8       __imp_@__vbaErase          004010b8     PC2014.OBJ
 0001:000000bc       __imp_@__vba@06E57D98      004010bc     PC2014.OBJ
 0001:000000bc       __imp____vba@06E57D98      004010bc     PC2014.OBJ
 0001:000000c0       __imp____vbaChkstk         004010c0     PC2014.OBJ
 0001:000000c4       __imp_@__vbaFileClose      004010c4     PC2014.OBJ
 0001:000000c4       __imp____vbaFileClose      004010c4     PC2014.OBJ
 0001:000000cc       __imp_@__vbaGenerateBoundsError 004010cc     PC2014.OBJ
 0001:000000cc       __imp____vbaGenerateBoundsError 004010cc     PC2014.OBJ
 0001:000000d0       __imp____vbaStrCmp         004010d0     PC2014.OBJ
 0001:000000d0       __imp_@__vbaStrCmp         004010d0     PC2014.OBJ
 0001:000000d4       __imp_@__vbaVarTstEq       004010d4     PC2014.OBJ
 0001:000000d4       __imp____vbaVarTstEq       004010d4     PC2014.OBJ
 0001:000000d8       __imp_@__vba@06EE89DC      004010d8     PC2014.OBJ
 0001:000000d8       __imp____vba@06EE89DC      004010d8     PC2014.OBJ
 0001:000000dc       __imp____vbaI2I4           004010dc     PC2014.OBJ
 0001:000000dc       __imp_@__vbaI2I4           004010dc     PC2014.OBJ
 0001:000000e0       __imp_@__vbaObjVar         004010e0     PC2014.OBJ
 0001:000000e0       __imp____vbaObjVar         004010e0     PC2014.OBJ
 0001:000000e8       __imp___adj_fpatan         004010e8     PC2014.OBJ
 0001:000000ec       __imp_@__vbaR4Var          004010ec     PC2014.OBJ
 0001:000000ec       __imp____vbaR4Var          004010ec     PC2014.OBJ
 0001:000000f0       __imp____vba@003A7168      004010f0     PC2014.OBJ
 0001:000000f0       __imp_@__vba@003A7168      004010f0     PC2014.OBJ
 0001:000000f4       __imp_@__vbaLateIdCallLd   004010f4     PC2014.OBJ
 0001:000000f4       __imp____vbaLateIdCallLd   004010f4     PC2014.OBJ
 0001:000000f8       __imp_@__vbaRedim          004010f8     PC2014.OBJ
 0001:000000f8       __imp____vbaRedim          004010f8     PC2014.OBJ
 0001:000000fc       __imp_@__vbaRecUniToAnsi   004010fc     PC2014.OBJ
 0001:000000fc       __imp____vbaRecUniToAnsi   004010fc     PC2014.OBJ
 0001:00000104       __imp____vba@003A759C      00401104     PC2014.OBJ
 0001:00000104       __imp_@__vba@003A759C      00401104     PC2014.OBJ
 0001:00000108       __imp____vbaUI1I2          00401108     PC2014.OBJ
 0001:00000108       __imp_@__vbaUI1I2          00401108     PC2014.OBJ
 0001:0000010c       __imp___CIsqrt             0040110c     PC2014.OBJ
 0001:00000110       __imp_@__vbaVarAnd         00401110     PC2014.OBJ
 0001:00000110       __imp____vbaVarAnd         00401110     PC2014.OBJ
 0001:00000118       __imp_@__vbaStrUI1         00401118     PC2014.OBJ
 0001:00000118       __imp____vbaStrUI1         00401118     PC2014.OBJ
 0001:0000011c       __imp_@__vbaUI1I4          0040111c     PC2014.OBJ
 0001:0000011c       __imp____vbaUI1I4          0040111c     PC2014.OBJ
 0001:00000120       __imp____vbaExceptHandler  00401120     PC2014.OBJ
 0001:00000124       __imp____vba@06EE84E4      00401124     PC2014.OBJ
 0001:00000124       __imp_@__vba@06EE84E4      00401124     PC2014.OBJ
 0001:00000128       __imp_@__vbaStrToUnicode   00401128     PC2014.OBJ
 0001:00000128       __imp____vbaStrToUnicode   00401128     PC2014.OBJ
 0001:0000012c       __imp___adj_fprem          0040112c     PC2014.OBJ
 0001:00000130       __imp___adj_fdivr_m64      00401130     PC2014.OBJ
 0001:00000134       __imp_@__vbaVarDiv         00401134     PC2014.OBJ
 0001:00000134       __imp____vbaVarDiv         00401134     PC2014.OBJ
 0001:00000138       __imp____vba@06E5737C      00401138     PC2014.OBJ
 0001:00000138       __imp_@__vba@06E5737C      00401138     PC2014.OBJ
 0001:0000013c       __imp____vbaVarCmpLe       0040113c     PC2014.OBJ
 0001:0000013c       __imp_@__vbaVarCmpLe       0040113c     PC2014.OBJ
 0001:00000140       __imp____vba@060E1818      00401140     PC2014.OBJ
 0001:00000140       __imp_@__vba@060E1818      00401140     PC2014.OBJ
 0001:00000144       __imp____vbaFPException    00401144     PC2014.OBJ
 0001:00000148       __imp____vbaInStrVar       00401148     PC2014.OBJ
 0001:00000148       __imp_@__vbaInStrVar       00401148     PC2014.OBJ
 0001:0000014c       __imp_@__vba@06EE7898      0040114c     PC2014.OBJ
 0001:0000014c       __imp____vba@06EE7898      0040114c     PC2014.OBJ
 0001:00000150       __imp_@__vbaGetOwner3      00401150     PC2014.OBJ
 0001:00000150       __imp____vbaGetOwner3      00401150     PC2014.OBJ
 0001:00000154       __imp____vbaStrVarVal      00401154     PC2014.OBJ
 0001:00000154       __imp_@__vbaStrVarVal      00401154     PC2014.OBJ
 0001:00000158       __imp_@__vbaUbound         00401158     PC2014.OBJ
 0001:00000158       __imp____vbaUbound         00401158     PC2014.OBJ
 0001:0000015c       __imp_@__vba@060E0B24      0040115c     PC2014.OBJ
 0001:0000015c       __imp____vba@060E0B24      0040115c     PC2014.OBJ
 0001:00000160       __imp____vbaI2Var          00401160     PC2014.OBJ
 0001:00000160       __imp_@__vbaI2Var          00401160     PC2014.OBJ
 0001:00000164       __imp___CIlog              00401164     PC2014.OBJ
 0001:00000168       __imp____vbaErrorOverflow  00401168     PC2014.OBJ
 0001:00000168       __imp_@__vbaErrorOverflow  00401168     PC2014.OBJ
 0001:0000016c       __imp____vbaFileOpen       0040116c     PC2014.OBJ
 0001:0000016c       __imp_@__vbaFileOpen       0040116c     PC2014.OBJ
 0001:00000170       __imp_@__vba@003A71A0      00401170     PC2014.OBJ
 0001:00000170       __imp____vba@003A71A0      00401170     PC2014.OBJ
 0001:00000174       __imp____vbaInStr          00401174     PC2014.OBJ
 0001:00000174       __imp_@__vbaInStr          00401174     PC2014.OBJ
 0001:00000178       __imp____vbaNew2           00401178     PC2014.OBJ
 0001:00000178       __imp_@__vbaNew2           00401178     PC2014.OBJ
 0001:0000017c       __imp___adj_fdiv_m32i      0040117c     PC2014.OBJ
 0001:00000180       __imp___adj_fdivr_m32i     00401180     PC2014.OBJ
 0001:00000184       __imp____vbaStrCopy        00401184     PC2014.OBJ
 0001:00000184       __imp_@__vbaStrCopy        00401184     PC2014.OBJ
 0001:00000188       __imp_@__vbaI4Str          00401188     PC2014.OBJ
 0001:00000188       __imp____vbaI4Str          00401188     PC2014.OBJ
 0001:0000018c       __imp____vbaVarCmpLt       0040118c     PC2014.OBJ
 0001:0000018c       __imp_@__vbaVarCmpLt       0040118c     PC2014.OBJ
 0001:00000190       __imp_@__vbaFreeStrList    00401190     PC2014.OBJ
 0001:00000190       __imp____vbaFreeStrList    00401190     PC2014.OBJ
 0001:00000194       __imp___adj_fdivr_m32      00401194     PC2014.OBJ
 0001:00000198       __imp___adj_fdiv_r         00401198     PC2014.OBJ
 0001:000001a0       __imp____vbaVarSetVar      004011a0     PC2014.OBJ
 0001:000001a0       __imp_@__vbaVarSetVar      004011a0     PC2014.OBJ
 0001:000001a4       __imp____vbaI4Var          004011a4     PC2014.OBJ
 0001:000001a4       __imp_@__vbaI4Var          004011a4     PC2014.OBJ
 0001:000001a8       __imp____vba@060E0D40      004011a8     PC2014.OBJ
 0001:000001a8       __imp_@__vba@060E0D40      004011a8     PC2014.OBJ
 0001:000001ac       __imp____vbaVarAdd         004011ac     PC2014.OBJ
 0001:000001ac       __imp_@__vbaVarAdd         004011ac     PC2014.OBJ
 0001:000001b0       __imp____vbaLateMemCall    004011b0     PC2014.OBJ
 0001:000001b0       __imp_@__vbaLateMemCall    004011b0     PC2014.OBJ
 0001:000001b4       __imp____vbaVarDup         004011b4     PC2014.OBJ
 0001:000001b4       __imp_@__vbaVarDup         004011b4     PC2014.OBJ
 0001:000001b8       __imp____vbaStrToAnsi      004011b8     PC2014.OBJ
 0001:000001b8       __imp_@__vbaStrToAnsi      004011b8     PC2014.OBJ
 0001:000001bc       __imp_@__vba@06E579F4      004011bc     PC2014.OBJ
 0001:000001bc       __imp____vba@06E579F4      004011bc     PC2014.OBJ
 0001:000001c0       __imp_@__vbaFpI2           004011c0     PC2014.OBJ
 0001:000001c0       __imp____vbaFpI2           004011c0     PC2014.OBJ
 0001:000001c4       __imp____vba@06E5796C      004011c4     PC2014.OBJ
 0001:000001c4       __imp_@__vba@06E5796C      004011c4     PC2014.OBJ
 0001:000001c8       __imp____vbaFpI4           004011c8     PC2014.OBJ
 0001:000001c8       __imp_@__vbaFpI4           004011c8     PC2014.OBJ
 0001:000001cc       __imp_@__vba@06E577CC      004011cc     PC2014.OBJ
 0001:000001cc       __imp____vba@06E577CC      004011cc     PC2014.OBJ
 0001:000001d0       __imp_@__vbaLateMemCallLd  004011d0     PC2014.OBJ
 0001:000001d0       __imp____vbaLateMemCallLd  004011d0     PC2014.OBJ
 0001:000001d4       __imp___CIatan             004011d4     PC2014.OBJ
 0001:000001d8       __imp_@__vbaUI1Str         004011d8     PC2014.OBJ
 0001:000001d8       __imp____vbaUI1Str         004011d8     PC2014.OBJ
 0001:000001dc       __imp_@__vbaAryCopy        004011dc     PC2014.OBJ
 0001:000001dc       __imp____vbaAryCopy        004011dc     PC2014.OBJ
 0001:000001e0       __imp____vbaStrMove        004011e0     PC2014.OBJ
 0001:000001e0       __imp_@__vbaStrMove        004011e0     PC2014.OBJ
 0001:000001e4       __imp____vba@06E57BB0      004011e4     PC2014.OBJ
 0001:000001e4       __imp_@__vba@06E57BB0      004011e4     PC2014.OBJ
 0001:000001e8       __imp___allmul             004011e8     PC2014.OBJ
 0001:000001ec       __imp____vbaLateIdSt       004011ec     PC2014.OBJ
 0001:000001ec       __imp_@__vbaLateIdSt       004011ec     PC2014.OBJ
 0001:000001f0       __imp____vbaLenVarB        004011f0     PC2014.OBJ
 0001:000001f0       __imp_@__vbaLenVarB        004011f0     PC2014.OBJ
 0001:000001f4       __imp___CItan              004011f4     PC2014.OBJ
 0001:000001f8       __imp_@__vbaFPInt          004011f8     PC2014.OBJ
 0001:000001f8       __imp____vbaFPInt          004011f8     PC2014.OBJ
 0001:000001fc       __imp_@__vbaUI1Var         004011fc     PC2014.OBJ
 0001:000001fc       __imp____vbaUI1Var         004011fc     PC2014.OBJ
 0001:00000200       __imp___CIexp              00401200     PC2014.OBJ
 0001:00000204       __imp_@__vbaFreeObj        00401204     PC2014.OBJ
 0001:00000204       __imp____vbaFreeObj        00401204     PC2014.OBJ
 0001:00000208       __imp_@__vbaFreeStr        00401208     PC2014.OBJ
 0001:00000208       __imp____vbaFreeStr        00401208     PC2014.OBJ
 0001:0000057c       __real@4@4003d000000000000000 0040157c     VSKIN.OBJ
 0001:00000580       __real@4@40039000000000000000 00401580     VSKIN.OBJ
 0001:00000584       __real@4@4002a000000000000000 00401584     VSKIN.OBJ
 0001:00000588       __real@4@4002f000000000000000 00401588     VSKIN.OBJ
 0001:0000058c       __real@4@4003a000000000000000 0040158c     VSKIN.OBJ
 0001:000005b8       __real@4@4003f000000000000000 004015b8     VSKIN.OBJ
 0001:000005c0       __real@8@4000c000000000000000 004015c0     VSKIN.OBJ
 0001:00000670       __real@4@00000000000000000000 00401670     VSKIN.OBJ
 0001:00000674       __real@4@40038000000000000000 00401674     VSKIN.OBJ
 0001:00000798       __real@8@400fa8c0000000000000 00401798     ftpupload.OBJ
 0001:000007b0       __real@4@3fff8000000000000000 004017b0     ftpupload.OBJ
 0001:000007b4       __real@4@4006fe00000000000000 004017b4     ftpupload.OBJ
 0001:000007b8       __real@4@4001a000000000000000 004017b8     ftpupload.OBJ
 0001:000007bc       __real@4@4002c000000000000000 004017bc     ftpupload.OBJ
 0001:000008c0       ___vbaChkstk               004018c0     PC2014.OBJ
 0001:000008c0       VB@TEXT                    004018c0     PC2014.OBJ
 0001:000008c6       ___vbaExceptHandler        004018c6     PC2014.OBJ
 0001:000008cc       ___vbaFPException          004018cc     PC2014.OBJ
 0001:000008d2       __adj_fdiv_m16i            004018d2     PC2014.OBJ
 0001:000008d8       __adj_fdiv_m32             004018d8     PC2014.OBJ
 0001:000008de       __adj_fdiv_m32i            004018de     PC2014.OBJ
 0001:000008e4       __adj_fdiv_m64             004018e4     PC2014.OBJ
 0001:000008ea       __adj_fdiv_r               004018ea     PC2014.OBJ
 0001:000008f0       __adj_fdivr_m16i           004018f0     PC2014.OBJ
 0001:000008f6       __adj_fdivr_m32            004018f6     PC2014.OBJ
 0001:000008fc       __adj_fdivr_m32i           004018fc     PC2014.OBJ
 0001:00000902       __adj_fdivr_m64            00401902     PC2014.OBJ
 0001:00000908       __adj_fpatan               00401908     PC2014.OBJ
 0001:0000090e       __adj_fprem                0040190e     PC2014.OBJ
 0001:00000914       __adj_fprem1               00401914     PC2014.OBJ
 0001:0000091a       __adj_fptan                0040191a     PC2014.OBJ
 0001:00000920       __CIatan                   00401920     PC2014.OBJ
 0001:00000926       __CIcos                    00401926     PC2014.OBJ
 0001:0000092c       __CIexp                    0040192c     PC2014.OBJ
 0001:00000932       __CIlog                    00401932     PC2014.OBJ
 0001:00000938       __CIsin                    00401938     PC2014.OBJ
 0001:0000093e       __CIsqrt                   0040193e     PC2014.OBJ
 0001:00000944       __CItan                    00401944     PC2014.OBJ
 0001:0000094a       __allmul                   0040194a     PC2014.OBJ
 0001:00000956       ___vba@060E0D40            00401956     PC2014.OBJ
 0001:00000956       @__vba@060E0D40            00401956     PC2014.OBJ
 0001:0000095c       ___vbaStrCmp               0040195c     PC2014.OBJ
 0001:0000095c       @__vbaStrCmp               0040195c     PC2014.OBJ
 0001:00000962       @__vbaVarSetVar            00401962     PC2014.OBJ
 0001:00000962       ___vbaVarSetVar            00401962     PC2014.OBJ
 0001:00000968       @__vba@060E0E0C            00401968     PC2014.OBJ
 0001:00000968       ___vba@060E0E0C            00401968     PC2014.OBJ
 0001:0000096e       @__vbaFreeStr              0040196e     PC2014.OBJ
 0001:0000096e       ___vbaFreeStr              0040196e     PC2014.OBJ
 0001:00000974       ___vba@060E0E90            00401974     PC2014.OBJ
 0001:00000974       @__vba@060E0E90            00401974     PC2014.OBJ
 0001:0000097a       @__vbaFreeVarList          0040197a     PC2014.OBJ
 0001:0000097a       ___vbaFreeVarList          0040197a     PC2014.OBJ
 0001:00000980       ___vbaFreeObjList          00401980     PC2014.OBJ
 0001:00000980       @__vbaFreeObjList          00401980     PC2014.OBJ
 0001:00000986       ___vbaFreeStrList          00401986     PC2014.OBJ
 0001:00000986       @__vbaFreeStrList          00401986     PC2014.OBJ
 0001:0000098c       ___vbaStrMove              0040198c     PC2014.OBJ
 0001:0000098c       @__vbaStrMove              0040198c     PC2014.OBJ
 0001:00000992       ___vbaNew2                 00401992     PC2014.OBJ
 0001:00000992       @__vbaNew2                 00401992     PC2014.OBJ
 0001:00000998       @__vbaStrCat               00401998     PC2014.OBJ
 0001:00000998       ___vbaStrCat               00401998     PC2014.OBJ
 0001:0000099e       @__vbaLateMemCall          0040199e     PC2014.OBJ
 0001:0000099e       ___vbaLateMemCall          0040199e     PC2014.OBJ
 0001:000009a4       ___vbaFreeVar              004019a4     PC2014.OBJ
 0001:000009a4       @__vbaFreeVar              004019a4     PC2014.OBJ
 0001:000009aa       @__vba@060E1818            004019aa     PC2014.OBJ
 0001:000009aa       ___vba@060E1818            004019aa     PC2014.OBJ
 0001:000009b0       ___vbaObjVar               004019b0     PC2014.OBJ
 0001:000009b0       @__vbaObjVar               004019b0     PC2014.OBJ
 0001:000009b6       ___vbaObjSetAddref         004019b6     PC2014.OBJ
 0001:000009b6       @__vbaObjSetAddref         004019b6     PC2014.OBJ
 0001:000009bc       ___vbaFreeObj              004019bc     PC2014.OBJ
 0001:000009bc       @__vbaFreeObj              004019bc     PC2014.OBJ
 0001:000009c2       @__vbaHresultCheckObj      004019c2     PC2014.OBJ
 0001:000009c2       ___vbaHresultCheckObj      004019c2     PC2014.OBJ
 0001:000009c8       ___vbaObjSet               004019c8     PC2014.OBJ
 0001:000009c8       @__vbaObjSet               004019c8     PC2014.OBJ
 0001:000009ce       @__vbaOnError              004019ce     PC2014.OBJ
 0001:000009ce       ___vbaOnError              004019ce     PC2014.OBJ
 0001:000009d4       @__vbaErrorOverflow        004019d4     PC2014.OBJ
 0001:000009d4       ___vbaErrorOverflow        004019d4     PC2014.OBJ
 0001:000009da       ___vbaUI1I4                004019da     PC2014.OBJ
 0001:000009da       @__vbaUI1I4                004019da     PC2014.OBJ
 0001:000009e0       ___vba@060E0AA4            004019e0     PC2014.OBJ
 0001:000009e0       @__vba@060E0AA4            004019e0     PC2014.OBJ
 0001:000009e6       @__vbaFpR4                 004019e6     PC2014.OBJ
 0001:000009e6       ___vbaFpR4                 004019e6     PC2014.OBJ
 0001:000009ec       ___vba@060E0B24            004019ec     PC2014.OBJ
 0001:000009ec       @__vba@060E0B24            004019ec     PC2014.OBJ
 0001:000009f2       @__vbaUI1I2                004019f2     PC2014.OBJ
 0001:000009f2       ___vbaUI1I2                004019f2     PC2014.OBJ
 0001:000009f8       @__vbaSetSystemError       004019f8     PC2014.OBJ
 0001:000009f8       ___vbaSetSystemError       004019f8     PC2014.OBJ
 0001:000009fe       @__vbaFpI4                 004019fe     PC2014.OBJ
 0001:000009fe       ___vbaFpI4                 004019fe     PC2014.OBJ
 0001:00000a04       @__vbaBoolVar              00401a04     PC2014.OBJ
 0001:00000a04       ___vbaBoolVar              00401a04     PC2014.OBJ
 0001:00000a0a       ___vbaStrVarMove           00401a0a     PC2014.OBJ
 0001:00000a0a       @__vbaStrVarMove           00401a0a     PC2014.OBJ
 0001:00000a10       ___vbaStrCopy              00401a10     PC2014.OBJ
 0001:00000a10       @__vbaStrCopy              00401a10     PC2014.OBJ
 0001:00000a16       @__vbaVarDiv               00401a16     PC2014.OBJ
 0001:00000a16       ___vbaVarDiv               00401a16     PC2014.OBJ
 0001:00000a1c       @__vbaVarCmpLe             00401a1c     PC2014.OBJ
 0001:00000a1c       ___vbaVarCmpLe             00401a1c     PC2014.OBJ
 0001:00000a22       @__vbaI2I4                 00401a22     PC2014.OBJ
 0001:00000a22       ___vbaI2I4                 00401a22     PC2014.OBJ
 0001:00000a28       ___vbaFpR8                 00401a28     PC2014.OBJ
 0001:00000a28       @__vbaFpR8                 00401a28     PC2014.OBJ
 0001:00000a2e       ___vbaVarSub               00401a2e     PC2014.OBJ
 0001:00000a2e       @__vbaVarSub               00401a2e     PC2014.OBJ
 0001:00000a34       @__vbaVarTstLe             00401a34     PC2014.OBJ
 0001:00000a34       ___vbaVarTstLe             00401a34     PC2014.OBJ
 0001:00000a3a       ___vbaVarCmpLt             00401a3a     PC2014.OBJ
 0001:00000a3a       @__vbaVarCmpLt             00401a3a     PC2014.OBJ
 0001:00000a40       ___vbaVarAnd               00401a40     PC2014.OBJ
 0001:00000a40       @__vbaVarAnd               00401a40     PC2014.OBJ
 0001:00000a46       ___vbaBoolVarNull          00401a46     PC2014.OBJ
 0001:00000a46       @__vbaBoolVarNull          00401a46     PC2014.OBJ
 0001:00000a4c       ___vbaVarMove              00401a4c     PC2014.OBJ
 0001:00000a4c       @__vbaVarMove              00401a4c     PC2014.OBJ
 0001:00000a52       @__vbaR4Var                00401a52     PC2014.OBJ
 0001:00000a52       ___vbaR4Var                00401a52     PC2014.OBJ
 0001:00000a58       ___vbaLateMemSt            00401a58     PC2014.OBJ
 0001:00000a58       @__vbaLateMemSt            00401a58     PC2014.OBJ
 0001:00000a5e       ___vbaLateMemCallLd        00401a5e     PC2014.OBJ
 0001:00000a5e       @__vbaLateMemCallLd        00401a5e     PC2014.OBJ
 0001:00000a64       @__vbaStrToUnicode         00401a64     PC2014.OBJ
 0001:00000a64       ___vbaStrToUnicode         00401a64     PC2014.OBJ
 0001:00000a6a       @__vbaStrToAnsi            00401a6a     PC2014.OBJ
 0001:00000a6a       ___vbaStrToAnsi            00401a6a     PC2014.OBJ
 0001:00000a70       @__vba@06EE7898            00401a70     PC2014.OBJ
 0001:00000a70       ___vba@06EE7898            00401a70     PC2014.OBJ
 0001:00000a76       ___vbaLenVarB              00401a76     PC2014.OBJ
 0001:00000a76       @__vbaLenVarB              00401a76     PC2014.OBJ
 0001:00000a7c       @__vbaI4Var                00401a7c     PC2014.OBJ
 0001:00000a7c       ___vbaI4Var                00401a7c     PC2014.OBJ
 0001:00000a82       @__vbaRedim                00401a82     PC2014.OBJ
 0001:00000a82       ___vbaRedim                00401a82     PC2014.OBJ
 0001:00000a88       @__vbaAryDestruct          00401a88     PC2014.OBJ
 0001:00000a88       ___vbaAryDestruct          00401a88     PC2014.OBJ
 0001:00000a8e       @__vbaUbound               00401a8e     PC2014.OBJ
 0001:00000a8e       ___vbaUbound               00401a8e     PC2014.OBJ
 0001:00000a94       ___vba@06EE84E4            00401a94     PC2014.OBJ
 0001:00000a94       @__vba@06EE84E4            00401a94     PC2014.OBJ
 0001:00000a9a       @__vbaAryVar               00401a9a     PC2014.OBJ
 0001:00000a9a       ___vbaAryVar               00401a9a     PC2014.OBJ
 0001:00000aa0       @__vbaAryCopy              00401aa0     PC2014.OBJ
 0001:00000aa0       ___vbaAryCopy              00401aa0     PC2014.OBJ
 0001:00000aa6       ___vbaGenerateBoundsError  00401aa6     PC2014.OBJ
 0001:00000aa6       @__vbaGenerateBoundsError  00401aa6     PC2014.OBJ
 0001:00000aac       @__vbaVarDup               00401aac     PC2014.OBJ
 0001:00000aac       ___vbaVarDup               00401aac     PC2014.OBJ
 0001:00000ab2       ___vba@06EE88B4            00401ab2     PC2014.OBJ
 0001:00000ab2       @__vba@06EE88B4            00401ab2     PC2014.OBJ
 0001:00000ab8       ___vba@06EE89DC            00401ab8     PC2014.OBJ
 0001:00000ab8       @__vba@06EE89DC            00401ab8     PC2014.OBJ
 0001:00000abe       ___vbaStrVarVal            00401abe     PC2014.OBJ
 0001:00000abe       @__vbaStrVarVal            00401abe     PC2014.OBJ
 0001:00000ac4       @__vba@003A759C            00401ac4     PC2014.OBJ
 0001:00000ac4       ___vba@003A759C            00401ac4     PC2014.OBJ
 0001:00000aca       ___vbaStrUI1               00401aca     PC2014.OBJ
 0001:00000aca       @__vbaStrUI1               00401aca     PC2014.OBJ
 0001:00000ad0       @__vbaUI1Str               00401ad0     PC2014.OBJ
 0001:00000ad0       ___vbaUI1Str               00401ad0     PC2014.OBJ
 0001:00000ad6       @__vbaUI1Var               00401ad6     PC2014.OBJ
 0001:00000ad6       ___vbaUI1Var               00401ad6     PC2014.OBJ
 0001:00000adc       @__vbaStrI4                00401adc     PC2014.OBJ
 0001:00000adc       ___vbaStrI4                00401adc     PC2014.OBJ
 0001:00000ae2       @__vbaInStr                00401ae2     PC2014.OBJ
 0001:00000ae2       ___vbaInStr                00401ae2     PC2014.OBJ
 0001:00000ae8       @__vbaErase                00401ae8     PC2014.OBJ
 0001:00000ae8       ___vbaErase                00401ae8     PC2014.OBJ
 0001:00000aee       @__vbaGetOwner3            00401aee     PC2014.OBJ
 0001:00000aee       ___vbaGetOwner3            00401aee     PC2014.OBJ
 0001:00000af4       @__vba@003A7168            00401af4     PC2014.OBJ
 0001:00000af4       ___vba@003A7168            00401af4     PC2014.OBJ
 0001:00000afa       ___vba@003A71A0            00401afa     PC2014.OBJ
 0001:00000afa       @__vba@003A71A0            00401afa     PC2014.OBJ
 0001:00000b00       @__vba@06E5737C            00401b00     PC2014.OBJ
 0001:00000b00       ___vba@06E5737C            00401b00     PC2014.OBJ
 0001:00000b06       @__vbaVarTstEq             00401b06     PC2014.OBJ
 0001:00000b06       ___vbaVarTstEq             00401b06     PC2014.OBJ
 0001:00000b0c       ___vbaFileOpen             00401b0c     PC2014.OBJ
 0001:00000b0c       @__vbaFileOpen             00401b0c     PC2014.OBJ
 0001:00000b12       @__vbaI4Str                00401b12     PC2014.OBJ
 0001:00000b12       ___vbaI4Str                00401b12     PC2014.OBJ
 0001:00000b18       ___vbaLateIdSt             00401b18     PC2014.OBJ
 0001:00000b18       @__vbaLateIdSt             00401b18     PC2014.OBJ
 0001:00000b1e       @__vbaI2Var                00401b1e     PC2014.OBJ
 0001:00000b1e       ___vbaI2Var                00401b1e     PC2014.OBJ
 0001:00000b24       @__vbaLateIdCall           00401b24     PC2014.OBJ
 0001:00000b24       ___vbaLateIdCall           00401b24     PC2014.OBJ
 0001:00000b2a       @__vba@06E579F4            00401b2a     PC2014.OBJ
 0001:00000b2a       ___vba@06E579F4            00401b2a     PC2014.OBJ
 0001:00000b30       ___vba@06E57A2C            00401b30     PC2014.OBJ
 0001:00000b30       @__vba@06E57A2C            00401b30     PC2014.OBJ
 0001:00000b36       ___vba@06E57A64            00401b36     PC2014.OBJ
 0001:00000b36       @__vba@06E57A64            00401b36     PC2014.OBJ
 0001:00000b3c       @__vbaFPInt                00401b3c     PC2014.OBJ
 0001:00000b3c       ___vbaFPInt                00401b3c     PC2014.OBJ
 0001:00000b42       ___vbaFpI2                 00401b42     PC2014.OBJ
 0001:00000b42       @__vbaFpI2                 00401b42     PC2014.OBJ
 0001:00000b48       ___vba@06E57B2C            00401b48     PC2014.OBJ
 0001:00000b48       @__vba@06E57B2C            00401b48     PC2014.OBJ
 0001:00000b4e       @__vbaLenBstr              00401b4e     PC2014.OBJ
 0001:00000b4e       ___vbaLenBstr              00401b4e     PC2014.OBJ
 0001:00000b54       @__vba@06E57BB0            00401b54     PC2014.OBJ
 0001:00000b54       ___vba@06E57BB0            00401b54     PC2014.OBJ
 0001:00000b5a       @__vba@06E577CC            00401b5a     PC2014.OBJ
 0001:00000b5a       ___vba@06E577CC            00401b5a     PC2014.OBJ
 0001:00000b60       @__vbaVarAdd               00401b60     PC2014.OBJ
 0001:00000b60       ___vbaVarAdd               00401b60     PC2014.OBJ
 0001:00000b66       @__vbaLateIdCallLd         00401b66     PC2014.OBJ
 0001:00000b66       ___vbaLateIdCallLd         00401b66     PC2014.OBJ
 0001:00000b6c       ___vbaFileClose            00401b6c     PC2014.OBJ
 0001:00000b6c       @__vbaFileClose            00401b6c     PC2014.OBJ
 0001:00000b72       ___vba@06E578E8            00401b72     PC2014.OBJ
 0001:00000b72       @__vba@06E578E8            00401b72     PC2014.OBJ
 0001:00000b78       ___vbaLsetFixstr           00401b78     PC2014.OBJ
 0001:00000b78       @__vbaLsetFixstr           00401b78     PC2014.OBJ
 0001:00000b7e       ___vba@06E5796C            00401b7e     PC2014.OBJ
 0001:00000b7e       @__vba@06E5796C            00401b7e     PC2014.OBJ
 0001:00000b84       @__vba@06E57C1C            00401b84     PC2014.OBJ
 0001:00000b84       ___vba@06E57C1C            00401b84     PC2014.OBJ
 0001:00000b8a       @__vbaStrFixstr            00401b8a     PC2014.OBJ
 0001:00000b8a       ___vbaStrFixstr            00401b8a     PC2014.OBJ
 0001:00000b90       ___vbaInStrVar             00401b90     PC2014.OBJ
 0001:00000b90       @__vbaInStrVar             00401b90     PC2014.OBJ
 0001:00000b96       @__vbaRecAnsiToUni         00401b96     PC2014.OBJ
 0001:00000b96       ___vbaRecAnsiToUni         00401b96     PC2014.OBJ
 0001:00000b9c       ___vbaRecUniToAnsi         00401b9c     PC2014.OBJ
 0001:00000b9c       @__vbaRecUniToAnsi         00401b9c     PC2014.OBJ
 0001:00000ba2       ___vba@06E57D98            00401ba2     PC2014.OBJ
 0001:00000ba2       @__vba@06E57D98            00401ba2     PC2014.OBJ
 0001:00000ba8       @__vba@06E57DD0            00401ba8     PC2014.OBJ
 0001:00000ba8       ___vba@06E57DD0            00401ba8     PC2014.OBJ
 0001:00000bae       @__vba@06E24FD4            00401bae     PC2014.OBJ
 0001:00000bae       ___vba@06E24FD4            00401bae     PC2014.OBJ
 0001:00000bb4       ___vbaVarIndexLoad         00401bb4     PC2014.OBJ
 0001:00000bb4       @__vbaVarIndexLoad         00401bb4     PC2014.OBJ
 0001:00000bd4       ___vbaS                    00401bd4     PC2014.OBJ
 0001:0000171c       ___vba@003A46F4            0040271c     PC2014.OBJ
 0001:00001760       ___vba@003A62FC            00402760     PC2014.OBJ
 0001:000017a8       ___vba@003A37DC            004027a8     PC2014.OBJ
 0001:000017f4       ___vba@003A4D6C            004027f4     PC2014.OBJ
 0001:00001840       ___vba@003A674C            00402840     PC2014.OBJ
 0001:00001920       ___vba@003A6B9C            00402920     PC2014.OBJ
 0001:00002028       ___vba@06EE8D04            00403028     PC2014.OBJ
 0001:000022f4       ___vba@003A560C            004032f4     PC2014.OBJ
 0001:00002610       ___vba@00336484            00403610     PC2014.OBJ
 0001:00002948       ___vba@06EE7BC4            00403948     PC2014.OBJ
 0001:00002c94       ___vba@0033511C            00403c94     PC2014.OBJ
 0001:00002ff4       ___vba@003A51BC            00403ff4     PC2014.OBJ
 0001:00003370       ___vba@003A44CC            00404370     PC2014.OBJ
 0001:00003760       ___vba@060E111C            00404760     PC2014.OBJ
 0001:00003fb4       ___vba@060E225C            00404fb4     PC2014.OBJ
 0001:0000441c       ___vba@060E1E0C            0040541c     PC2014.OBJ
 0001:000049b4       ___vba@06E251FC            004059b4     PC2014.OBJ
 0001:00004f60       ___vba@06E56464            00405f60     PC2014.OBJ
 0001:00005ab0       ___vba@003A407C            00406ab0     PC2014.OBJ
 0001:000066ec       ___vba@003A7214            004076ec     PC2014.OBJ
 0001:000078c8       ___vba@060E42B4            004088c8     PC2014.OBJ
 0001:00007df8       ___vba@060E430C            00408df8     PC2014.OBJ
 0001:00007e00       ___vba@060E4318            00408e00     PC2014.OBJ
 0001:00007e08       ___vba@060E4324            00408e08     PC2014.OBJ
 0001:00007e14       ___vba@060E4334            00408e14     PC2014.OBJ
 0001:00007e1c       ___vba@060E4340            00408e1c     PC2014.OBJ
 0001:00007e24       ___vba@060E434C            00408e24     PC2014.OBJ
 0001:00007e2c       ___vba@060E4358            00408e2c     PC2014.OBJ
 0001:00007e30       ___vba@060E4360            00408e30     PC2014.OBJ
 0001:00007e38       ___vba@060E436C            00408e38     PC2014.OBJ
 0001:00007e40       ___vba@060E4378            00408e40     PC2014.OBJ
 0001:00007e48       ___vba@060E4384            00408e48     PC2014.OBJ
 0001:00007e54       ___vba@060E4394            00408e54     PC2014.OBJ
 0001:00007e60       ___vba@060E43A4            00408e60     PC2014.OBJ
 0001:00007e68       ___vba@060E43B0            00408e68     PC2014.OBJ
 0001:00007e74       ___vba@060E43C0            00408e74     PC2014.OBJ
 0001:00007e78       ___vba@060E43C8            00408e78     PC2014.OBJ
 0001:00007e80       ___vba@060E43D4            00408e80     PC2014.OBJ
 0001:00007e88       ___vba@060E43E0            00408e88     PC2014.OBJ
 0001:00007e90       ___vba@060E43EC            00408e90     PC2014.OBJ
 0001:00007ea4       ___vba@060E4404            00408ea4     PC2014.OBJ
 0001:00007eac       ___vba@060E4410            00408eac     PC2014.OBJ
 0001:00007ebc       ___vba@060E4420            00408ebc     PC2014.OBJ
 0001:00007ed4       ___vba@060E4440            00408ed4     PC2014.OBJ
 0001:00007ee4       ___vba@060E4454            00408ee4     PC2014.OBJ
 0001:00007ef4       ___vba@060E4468            00408ef4     PC2014.OBJ
 0001:00007f04       ___vba@060E447C            00408f04     PC2014.OBJ
 0001:00007f14       ___vba@060E4490            00408f14     PC2014.OBJ
 0001:00007f24       ___vba@060E44A4            00408f24     PC2014.OBJ
 0001:00007f30       ___vba@003A60D4            00408f30     PC2014.OBJ
 0001:00007f40       ___vba@003A60E8            00408f40     PC2014.OBJ
 0001:00007f7c       ___vba@003A6128            00408f7c     PC2014.OBJ
 0001:00007f80       ___vba@003A6130            00408f80     PC2014.OBJ
 0001:00007fa8       ___vba@003A615C            00408fa8     PC2014.OBJ
 0001:00007fb4       ___vba@003A616C            00408fb4     PC2014.OBJ
 0001:00007fc0       ___vba@003A617C            00408fc0     PC2014.OBJ
 0001:00007fcc       ___vba@003A618C            00408fcc     PC2014.OBJ
 0001:00007fdc       ___vba@003A61A0            00408fdc     PC2014.OBJ
 0001:00007fe4       ___vba@003A61AC            00408fe4     PC2014.OBJ
 0001:00007fec       ___vba@003A61B8            00408fec     PC2014.OBJ
 0001:00007ffc       ___vba@003A61CC            00408ffc     PC2014.OBJ
 0001:00008004       ___vba@003A61D8            00409004     PC2014.OBJ
 0001:0000800c       ___vba@003A61E4            0040900c     PC2014.OBJ
 0001:0000801c       ___vba@003A61F8            0040901c     PC2014.OBJ
 0001:00008024       ___vba@003A6204            00409024     PC2014.OBJ
 0001:00008034       ___vba@003A6218            00409034     PC2014.OBJ
 0001:0000803c       ___vba@003A6224            0040903c     PC2014.OBJ
 0001:00008044       ___vba@003A6230            00409044     PC2014.OBJ
 0001:00008050       ___vba@003A6240            00409050     PC2014.OBJ
 0001:00008058       ___vba@003A624C            00409058     PC2014.OBJ
 0001:00008068       ___vba@003A6260            00409068     PC2014.OBJ
 0001:00008070       ___vba@003A626C            00409070     PC2014.OBJ
 0001:00008078       ___vba@003A6278            00409078     PC2014.OBJ
 0001:00008084       ___vba@003A6288            00409084     PC2014.OBJ
 0001:0000808c       ___vba@003A6294            0040908c     PC2014.OBJ
 0001:00008094       ___vba@003A62A0            00409094     PC2014.OBJ
 0001:0000809c       ___vba@003A62AC            0040909c     PC2014.OBJ
 0001:000080a4       ___vba@003A62B8            004090a4     PC2014.OBJ
 0001:000080ac       ___vba@003A62C4            004090ac     PC2014.OBJ
 0001:000080b8       ___vba@00332C74            004090b8     PC2014.OBJ
 0001:000080c0       ___vba@00332C80            004090c0     PC2014.OBJ
 0001:000080c8       ___vba@00332C8C            004090c8     PC2014.OBJ
 0001:000080d0       ___vba@00332C98            004090d0     PC2014.OBJ
 0001:000080d8       ___vba@00332CA4            004090d8     PC2014.OBJ
 0001:000080e0       ___vba@00332CB0            004090e0     PC2014.OBJ
 0001:000080e8       ___vba@00332CBC            004090e8     PC2014.OBJ
 0001:000080f4       ___vba@00332CCC            004090f4     PC2014.OBJ
 0001:00008100       ___vba@00332CDC            00409100     PC2014.OBJ
 0001:0000810c       ___vba@00332CEC            0040910c     PC2014.OBJ
 0001:00008118       ___vba@00332CFC            00409118     PC2014.OBJ
 0001:0000812c       ___vba@00332D10            0040912c     PC2014.OBJ
 0001:0000814c       ___vba@00332D34            0040914c     PC2014.OBJ
 0001:000081d0       ___vba@00332DC0            004091d0     PC2014.OBJ
 0001:000081e0       ___vba@00332DD4            004091e0     PC2014.OBJ
 0001:000081f0       ___vba@00332DE8            004091f0     PC2014.OBJ
 0001:00008200       ___vba@00332DFC            00409200     PC2014.OBJ
 0001:00008214       ___vba@00332E10            00409214     PC2014.OBJ
 0001:0000821c       ___vba@00332E1C            0040921c     PC2014.OBJ
 0001:00008228       ___vba@00332E30            00409228     PC2014.OBJ
 0001:00008240       ___vba@00332E48            00409240     PC2014.OBJ
 0001:00008248       ___vba@00332E54            00409248     PC2014.OBJ
 0001:0000824c       ___vba@00332E60            0040924c     PC2014.OBJ
 0001:0000825c       ___vba@003359BC            0040925c     PC2014.OBJ
 0001:00008274       ___vba@003359D4            00409274     PC2014.OBJ
 0001:00008314       ___vba@00335A78            00409314     PC2014.OBJ
 0001:0000831c       ___vba@00335A88            0040931c     PC2014.OBJ
 0001:00008338       ___vba@00335AA4            00409338     PC2014.OBJ
 0001:0000834c       ___vba@00335ABC            0040934c     PC2014.OBJ
 0001:00008380       ___vba@00335AE0            00409380     PC2014.OBJ
 0001:000083a0       ___vba@00335B18            004093a0     PC2014.OBJ
 0001:000083c8       ___vba@00335B30            004093c8     PC2014.OBJ
 0001:000083e8       ___vba@00335B68            004093e8     PC2014.OBJ
 0001:00008410       ___vba@00335B80            00409410     PC2014.OBJ
 0001:00008434       ___vba@0033625C            00409434     PC2014.OBJ
 0001:00008458       ___vba@00336270            00409458     PC2014.OBJ
 0001:00008478       ___vba@003362A8            00409478     PC2014.OBJ
 0001:0000849c       ___vba@003362BC            0040949c     PC2014.OBJ
 0001:000084bc       ___vba@003362F4            004094bc     PC2014.OBJ
 0001:000084cc       ___vba@00336308            004094cc     PC2014.OBJ
 0001:000084f4       ___vba@00336320            004094f4     PC2014.OBJ
 0001:00008510       ___vba@00336358            00409510     PC2014.OBJ
 0001:00008520       ___vba@00336368            00409520     PC2014.OBJ
 0001:00008594       ___vba@003363E0            00409594     PC2014.OBJ
 0001:000085b4       ___vba@003363F0            004095b4     PC2014.OBJ
 0001:000085d0       ___vba@00336428            004095d0     PC2014.OBJ
 0001:000085e8       ___vba@00336444            004095e8     PC2014.OBJ
 0001:00008600       ___vba@00335344            00409600     PC2014.OBJ
 0001:00008670       ___vba@003353B8            00409670     PC2014.OBJ
 0001:00008674       ___vba@003353C4            00409674     PC2014.OBJ
 0001:00008684       ___vba@003353D8            00409684     PC2014.OBJ
 0001:00008694       ___vba@003353EC            00409694     PC2014.OBJ
 0001:000086a4       ___vba@00335400            004096a4     PC2014.OBJ
 0001:000086b4       ___vba@00335414            004096b4     PC2014.OBJ
 0001:000086c4       ___vba@00335428            004096c4     PC2014.OBJ
 0001:000086d4       ___vba@0033543C            004096d4     PC2014.OBJ
 0001:000086e0       ___vba@00335448            004096e0     PC2014.OBJ
 0001:000086ec       ___vba@00335458            004096ec     PC2014.OBJ
 0001:00008714       ___vba@00335470            00409714     PC2014.OBJ
 0001:00008734       ___vba@003354A8            00409734     PC2014.OBJ
 0001:0000875c       ___vba@003354C0            0040975c     PC2014.OBJ
 0001:0000877c       ___vba@003354F8            0040977c     PC2014.OBJ
 0001:0000879c       ___vba@0033551C            0040979c     PC2014.OBJ
 0001:000087a4       ___vba@00335528            004097a4     PC2014.OBJ
 0001:000087b4       ___vba@00335E0C            004097b4     PC2014.OBJ
 0001:000087c0       ___vba@00335E20            004097c0     PC2014.OBJ
 0001:000087d0       ___vba@00335E34            004097d0     PC2014.OBJ
 0001:000087e0       ___vba@00335E48            004097e0     PC2014.OBJ
 0001:000087f0       ___vba@00335E5C            004097f0     PC2014.OBJ
 0001:00008800       ___vba@00335E70            00409800     PC2014.OBJ
 0001:0000880c       ___vba@00335E80            0040980c     PC2014.OBJ
 0001:0000881c       ___vba@00335E94            0040981c     PC2014.OBJ
 0001:0000882c       ___vba@00335EA8            0040982c     PC2014.OBJ
 0001:0000883c       ___vba@00335EBC            0040983c     PC2014.OBJ
 0001:0000884c       ___vba@00335ED0            0040984c     PC2014.OBJ
 0001:0000885c       ___vba@00335EE4            0040985c     PC2014.OBJ
 0001:00008864       ___vba@00335EF0            00409864     PC2014.OBJ
 0001:00008870       ___vba@00335F00            00409870     PC2014.OBJ
 0001:00008880       ___vba@00335F14            00409880     PC2014.OBJ
 0001:00008890       ___vba@00335F28            00409890     PC2014.OBJ
 0001:000088a0       ___vba@00335F3C            004098a0     PC2014.OBJ
 0001:000088b0       ___vba@00335F50            004098b0     PC2014.OBJ
 0001:000088c0       ___vba@00335F64            004098c0     PC2014.OBJ
 0001:000088d0       ___vba@00335F78            004098d0     PC2014.OBJ
 0001:000088e0       ___vba@00335F8C            004098e0     PC2014.OBJ
 0001:000088f0       ___vba@00335FA0            004098f0     PC2014.OBJ
 0001:00008900       ___vba@00335FB4            00409900     PC2014.OBJ
 0001:00008910       ___vba@00335FC8            00409910     PC2014.OBJ
 0001:0000891c       ___vba@00335FD4            0040991c     PC2014.OBJ
 0001:0000892c       ___vba@00335FE8            0040992c     PC2014.OBJ
 0001:00008954       ___vba@060E1BE4            00409954     PC2014.OBJ
 0001:00008974       ___vba@060E1C1C            00409974     PC2014.OBJ
 0001:000089a0       ___vba@060E1C38            004099a0     PC2014.OBJ
 0001:000089c0       ___vba@060E1C70            004099c0     PC2014.OBJ
 0001:000089f0       ___vba@060E1C90            004099f0     PC2014.OBJ
 0001:00008a10       ___vba@060E1CC8            00409a10     PC2014.OBJ
 0001:00008a38       ___vba@060E1CE0            00409a38     PC2014.OBJ
 0001:00008a58       ___vba@060E1D18            00409a58     PC2014.OBJ
 0001:00008a7c       ___vba@060E1D2C            00409a7c     PC2014.OBJ
 0001:00008a98       ___vba@060E1D64            00409a98     PC2014.OBJ
 0001:00008aa8       ___vba@060E1D78            00409aa8     PC2014.OBJ
 0001:00008ab8       ___vba@060E1D8C            00409ab8     PC2014.OBJ
 0001:00008ac8       ___vba@060E1DA0            00409ac8     PC2014.OBJ
 0001:00008ad8       ___vba@060E1DB4            00409ad8     PC2014.OBJ
 0001:00008ae4       ___vba@060E1DC4            00409ae4     PC2014.OBJ
 0001:00008af4       ___vba@060E0CCC            00409af4     PC2014.OBJ
 0001:00008b04       ___vba@060E0CE0            00409b04     PC2014.OBJ
 0001:00008b14       ___vba@060E0CF4            00409b14     PC2014.OBJ
 0001:00008b24       ___vba@060E0D08            00409b24     PC2014.OBJ
 0001:00008b2c       ___vba@060E0D14            00409b2c     PC2014.OBJ
 0001:00008b3c       ___vba@060E0D24            00409b3c     PC2014.OBJ
 0001:00008b40       ___vba@060E0D30            00409b40     PC2014.OBJ
 0001:00008b4c       ___vba@060E0D78            00409b4c     PC2014.OBJ
 0001:00008b58       ___vba@060E0DC0            00409b58     PC2014.OBJ
 0001:00008b68       ___vba@060E0E44            00409b68     PC2014.OBJ
 0001:00008b78       ___vba@060E2034            00409b78     PC2014.OBJ
 0001:00008b8c       ___vba@060E2084            00409b8c     PC2014.OBJ
 0001:00008ba0       ___vba@060E20D4            00409ba0     PC2014.OBJ
 0001:00008bb4       ___vba@060E2124            00409bb4     PC2014.OBJ
 0001:00008bc4       ___vba@060E2170            00409bc4     PC2014.OBJ
 0001:00008bd8       ___vba@060E21C4            00409bd8     PC2014.OBJ
 0001:00008be4       ___vba@060E220C            00409be4     PC2014.OBJ
 0001:00008bf8       ___vba@060E2224            00409bf8     PC2014.OBJ
 0001:00008c04       ___vba@060E17CC            00409c04     PC2014.OBJ
 0001:00008c14       ___vba@060E1850            00409c14     PC2014.OBJ
 0001:00008c20       ___vba@060E1898            00409c20     PC2014.OBJ
 0001:00008c34       ___vba@060E18E8            00409c34     PC2014.OBJ
 0001:00008c44       ___vba@060E1934            00409c44     PC2014.OBJ
 0001:00008c5c       ___vba@060E26E4            00409c5c     PC2014.OBJ
 0001:00008c70       ___vba@060E2730            00409c70     PC2014.OBJ
 0001:00008c94       ___vba@060E2744            00409c94     PC2014.OBJ
 0001:00008cc8       ___vba@060E277C            00409cc8     PC2014.OBJ
 0001:00008cfc       ___vba@060E27B4            00409cfc     PC2014.OBJ
 0001:00008d18       ___vba@060E27EC            00409d18     PC2014.OBJ
 0001:00008d28       ___vba@060E2800            00409d28     PC2014.OBJ
 0001:00008d3c       ___vba@060E2850            00409d3c     PC2014.OBJ
 0001:00008d48       ___vba@060E2898            00409d48     PC2014.OBJ
 0001:00008d58       ___vba@060E0ADC            00409d58     PC2014.OBJ
 0001:00008d64       ___vba@060E0B5C            00409d64     PC2014.OBJ
 0001:00008d70       ___vba@060E0BA4            00409d70     PC2014.OBJ
 0001:00008d84       ___vba@060E0BF4            00409d84     PC2014.OBJ
 0001:00008d90       ___vba@060E0C04            00409d90     PC2014.OBJ
 0001:00008da0       ___vba@060E0C14            00409da0     PC2014.OBJ
 0001:00008dc8       ___vba@060E0C2C            00409dc8     PC2014.OBJ
 0001:00008de8       ___vba@060E0C64            00409de8     PC2014.OBJ
 0001:00008dfc       ___vba@060E0C7C            00409dfc     PC2014.OBJ
 0001:00008e24       ___vba@060E2484            00409e24     PC2014.OBJ
 0001:00008e44       ___vba@060E24BC            00409e44     PC2014.OBJ
 0001:00008e6c       ___vba@060E24D4            00409e6c     PC2014.OBJ
 0001:00008e88       ___vba@060E250C            00409e88     PC2014.OBJ
 0001:00008e94       ___vba@060E251C            00409e94     PC2014.OBJ
 0001:00008ea0       ___vba@060E2564            00409ea0     PC2014.OBJ
 0001:00008eb0       ___vba@060E2578            00409eb0     PC2014.OBJ
 0001:00008ec0       ___vba@060E258C            00409ec0     PC2014.OBJ
 0001:00008ed0       ___vba@060E25A0            00409ed0     PC2014.OBJ
 0001:00008ee0       ___vba@060E25B4            00409ee0     PC2014.OBJ
 0001:00008ef0       ___vba@060E25C8            00409ef0     PC2014.OBJ
 0001:00008f00       ___vba@060E25DC            00409f00     PC2014.OBJ
 0001:00008f0c       ___vba@060E25EC            00409f0c     PC2014.OBJ
 0001:00008f18       ___vba@060E25FC            00409f18     PC2014.OBJ
 0001:00008f28       ___vba@060E2610            00409f28     PC2014.OBJ
 0001:00008f34       ___vba@060E2620            00409f34     PC2014.OBJ
 0001:00008f44       ___vba@060E2630            00409f44     PC2014.OBJ
 0001:00008f6c       ___vba@060E2648            00409f6c     PC2014.OBJ
 0001:00008fa4       ___vba@060E4704            00409fa4     PC2014.OBJ
 0001:00008fc4       ___vba@060E473C            00409fc4     PC2014.OBJ
 0001:00008ff4       ___vba@060E475C            00409ff4     PC2014.OBJ
 0001:00009014       ___vba@060E4794            0040a014     PC2014.OBJ
 0001:00009024       ___vba@060E47A8            0040a024     PC2014.OBJ
 0001:00009048       ___vba@060E47BC            0040a048     PC2014.OBJ
 0001:00009068       ___vba@060E47F4            0040a068     PC2014.OBJ
 0001:0000908c       ___vba@060E4808            0040a08c     PC2014.OBJ
 0001:000090ac       ___vba@060E4840            0040a0ac     PC2014.OBJ
 0001:000090cc       ___vba@060E4850            0040a0cc     PC2014.OBJ
 0001:000090ec       ___vba@060E4888            0040a0ec     PC2014.OBJ
 0001:00009114       ___vba@060E48A0            0040a114     PC2014.OBJ
 0001:00009134       ___vba@060E48D8            0040a134     PC2014.OBJ
 0001:00009140       ___vba@060E48EC            0040a140     PC2014.OBJ
 0001:00009164       ___vba@060E1344            0040a164     PC2014.OBJ
 0001:00009184       ___vba@060E137C            0040a184     PC2014.OBJ
 0001:000091a8       ___vba@060E1390            0040a1a8     PC2014.OBJ
 0001:000091c8       ___vba@060E13C8            0040a1c8     PC2014.OBJ
 0001:000091f0       ___vba@060E13E0            0040a1f0     PC2014.OBJ
 0001:0000920c       ___vba@060E1418            0040a20c     PC2014.OBJ
 0001:00009218       ___vba@060E1428            0040a218     PC2014.OBJ
 0001:00009224       ___vba@060E1438            0040a224     PC2014.OBJ
 0001:0000922c       ___vba@060E1444            0040a22c     PC2014.OBJ
 0001:00009234       ___vba@060E1450            0040a234     PC2014.OBJ
 0001:00009244       ___vba@060E1464            0040a244     PC2014.OBJ
 0001:00009254       ___vba@060E1478            0040a254     PC2014.OBJ
 0001:00009260       ___vba@060E1488            0040a260     PC2014.OBJ
 0001:0000926c       ___vba@060E1498            0040a26c     PC2014.OBJ
 0001:00009274       ___vba@060E14A4            0040a274     PC2014.OBJ
 0001:00009284       ___vba@060E14B8            0040a284     PC2014.OBJ
 0001:00009290       ___vba@060E14C8            0040a290     PC2014.OBJ
 0001:000092ac       ___vba@060E14E4            0040a2ac     PC2014.OBJ
 0001:000092bc       ___vba@060E14FC            0040a2bc     PC2014.OBJ
 0001:000092d0       ___vba@060E1510            0040a2d0     PC2014.OBJ
 0001:000092e0       ___vba@060E1528            0040a2e0     PC2014.OBJ
 0001:000092f0       ___vba@06EE7584            0040a2f0     PC2014.OBJ
 0001:00009300       ___vba@06EE75D0            0040a300     PC2014.OBJ
 0001:00009310       ___vba@06EE761C            0040a310     PC2014.OBJ
 0001:0000931c       ___vba@06EE7664            0040a31c     PC2014.OBJ
 0001:0000932c       ___vba@06EE76B0            0040a32c     PC2014.OBJ
 0001:00009338       ___vba@06EE76F8            0040a338     PC2014.OBJ
 0001:00009344       ___vba@003366E4            0040a344     PC2014.OBJ
 0001:00009354       ___vba@00336730            0040a354     PC2014.OBJ
 0001:00009364       ___vba@0033677C            0040a364     PC2014.OBJ
 0001:00009370       ___vba@003367C4            0040a370     PC2014.OBJ
 0001:00009384       ___vba@00336814            0040a384     PC2014.OBJ
 0001:00009394       ___vba@00336860            0040a394     PC2014.OBJ
 0001:000093a0       ___vba@06EE77AC            0040a3a0     PC2014.OBJ
 0001:000093b4       ___vba@06EE77FC            0040a3b4     PC2014.OBJ
 0001:000093c8       ___vba@06EE784C            0040a3c8     PC2014.OBJ
 0001:000093d8       ___vba@06EE78D0            0040a3d8     PC2014.OBJ
 0001:000093e8       ___vba@06EE791C            0040a3e8     PC2014.OBJ
 0001:000093f4       ___vba@06EE823C            0040a3f4     PC2014.OBJ
 0001:00009404       ___vba@06EE8250            0040a404     PC2014.OBJ
 0001:00009414       ___vba@06EE8264            0040a414     PC2014.OBJ
 0001:00009424       ___vba@06EE8278            0040a424     PC2014.OBJ
 0001:00009438       ___vba@06EE828C            0040a438     PC2014.OBJ
 0001:00009440       ___vba@06EE8298            0040a440     PC2014.OBJ
 0001:00009470       ___vba@06EE82CC            0040a470     PC2014.OBJ
 0001:0000947c       ___vba@06EE82DC            0040a47c     PC2014.OBJ
 0001:00009490       ___vba@06EE82F4            0040a490     PC2014.OBJ
 0001:0000949c       ___vba@06EE8308            0040a49c     PC2014.OBJ
 0001:000094ac       ___vba@06EE831C            0040a4ac     PC2014.OBJ
 0001:000094dc       ___vba@06EE8338            0040a4dc     PC2014.OBJ
 0001:00009510       ___vba@06EE8370            0040a510     PC2014.OBJ
 0001:00009544       ___vba@06EE83A8            0040a544     PC2014.OBJ
 0001:00009564       ___vba@06EE83E0            0040a564     PC2014.OBJ
 0001:00009590       ___vba@06EE83FC            0040a590     PC2014.OBJ
 0001:000095c4       ___vba@06EE8014            0040a5c4     PC2014.OBJ
 0001:000095e0       ___vba@06EE804C            0040a5e0     PC2014.OBJ
 0001:00009624       ___vba@06EE8090            0040a624     PC2014.OBJ
 0001:0000962c       ___vba@06EE809C            0040a62c     PC2014.OBJ
 0001:00009650       ___vba@06EE80C4            0040a650     PC2014.OBJ
 0001:00009670       ___vba@06EE80E8            0040a670     PC2014.OBJ
 0001:00009690       ___vba@06EE810C            0040a690     PC2014.OBJ
 0001:000096ac       ___vba@06EE812C            0040a6ac     PC2014.OBJ
 0001:000096c0       ___vba@06EE8144            0040a6c0     PC2014.OBJ
 0001:000096dc       ___vba@06EE8164            0040a6dc     PC2014.OBJ
 0001:000096f0       ___vba@06EE817C            0040a6f0     PC2014.OBJ
 0001:00009704       ___vba@06EE8198            0040a704     PC2014.OBJ
 0001:00009710       ___vba@06EE81E0            0040a710     PC2014.OBJ
 0001:00009728       ___vba@06EE81F8            0040a728     PC2014.OBJ
 0001:0000973c       ___vba@06EE849C            0040a73c     PC2014.OBJ
 0001:00009748       ___vba@06EE851C            0040a748     PC2014.OBJ
 0001:00009754       ___vba@06EE8564            0040a754     PC2014.OBJ
 0001:00009764       ___vba@06EE85B0            0040a764     PC2014.OBJ
 0001:00009780       ___vba@06EE8608            0040a780     PC2014.OBJ
 0001:00009790       ___vba@06EE8650            0040a790     PC2014.OBJ
 0001:0000979c       ___vba@06EE88EC            0040a79c     PC2014.OBJ
 0001:000097b0       ___vba@06EE8900            0040a7b0     PC2014.OBJ
 0001:000097cc       ___vba@06EE8920            0040a7cc     PC2014.OBJ
 0001:000097d8       ___vba@06EE8930            0040a7d8     PC2014.OBJ
 0001:0000984c       ___vba@06EE89A8            0040a84c     PC2014.OBJ
 0001:0000986c       ___vba@06EE89CC            0040a86c     PC2014.OBJ
 0001:00009878       ___vba@06EE8A14            0040a878     PC2014.OBJ
 0001:00009884       ___vba@06EE8A24            0040a884     PC2014.OBJ
 0001:000098c8       ___vba@06EE8A70            0040a8c8     PC2014.OBJ
 0001:000098d8       ___vba@06EE8A84            0040a8d8     PC2014.OBJ
 0001:000098e8       ___vba@06EE8A98            0040a8e8     PC2014.OBJ
 0001:000098fc       ___vba@003A743C            0040a8fc     PC2014.OBJ
 0001:00009920       ___vba@003A7464            0040a920     PC2014.OBJ
 0001:00009928       ___vba@003A7470            0040a928     PC2014.OBJ
 0001:0000993c       ___vba@003A7488            0040a93c     PC2014.OBJ
 0001:00009950       ___vba@003A74A0            0040a950     PC2014.OBJ
 0001:0000995c       ___vba@003A74B0            0040a95c     PC2014.OBJ
 0001:000099d8       ___vba@003A7530            0040a9d8     PC2014.OBJ
 0001:000099f0       ___vba@003A7550            0040a9f0     PC2014.OBJ
 0001:00009a00       ___vba@003A75D4            0040aa00     PC2014.OBJ
 0001:00009a0c       ___vba@003A761C            0040aa0c     PC2014.OBJ
 0001:00009a1c       ___vba@003A762C            0040aa1c     PC2014.OBJ
 0001:00009a24       ___vba@06EE86C4            0040aa24     PC2014.OBJ
 0001:00009a34       ___vba@06EE870C            0040aa34     PC2014.OBJ
 0001:00009a40       ___vba@06EE8720            0040aa40     PC2014.OBJ
 0001:00009a50       ___vba@06EE8768            0040aa50     PC2014.OBJ
 0001:00009ab4       ___vba@06EE87D0            0040aab4     PC2014.OBJ
 0001:00009ac4       ___vba@06EE87E4            0040aac4     PC2014.OBJ
 0001:00009acc       ___vba@06EE87F0            0040aacc     PC2014.OBJ
 0001:00009adc       ___vba@06EE8808            0040aadc     PC2014.OBJ
 0001:00009aec       ___vba@06EE881C            0040aaec     PC2014.OBJ
 0001:00009afc       ___vba@06EE8830            0040aafc     PC2014.OBJ
 0001:00009b0c       ___vba@06EE8844            0040ab0c     PC2014.OBJ
 0001:00009b1c       ___vba@06EE8858            0040ab1c     PC2014.OBJ
 0001:00009b28       ___vba@06EE8868            0040ab28     PC2014.OBJ
 0001:00009b40       ___vba@06E5623C            0040ab40     PC2014.OBJ
 0001:00009b6c       ___vba@06E56270            0040ab6c     PC2014.OBJ
 0001:00009b78       ___vba@06E562B8            0040ab78     PC2014.OBJ
 0001:00009b88       ___vba@06E562CC            0040ab88     PC2014.OBJ
 0001:00009b98       ___vba@06E562E0            0040ab98     PC2014.OBJ
 0001:00009ba8       ___vba@06E562F4            0040aba8     PC2014.OBJ
 0001:00009bb8       ___vba@06E56308            0040abb8     PC2014.OBJ
 0001:00009bc0       ___vba@06E56314            0040abc0     PC2014.OBJ
 0001:00009bc8       ___vba@06E56320            0040abc8     PC2014.OBJ
 0001:00009bd8       ___vba@06E56334            0040abd8     PC2014.OBJ
 0001:00009be0       ___vba@06E56340            0040abe0     PC2014.OBJ
 0001:00009be8       ___vba@06E5634C            0040abe8     PC2014.OBJ
 0001:00009bf0       ___vba@06E56358            0040abf0     PC2014.OBJ
 0001:00009c00       ___vba@06E56368            0040ac00     PC2014.OBJ
 0001:00009c24       ___vba@06E56390            0040ac24     PC2014.OBJ
 0001:00009c3c       ___vba@06E563B0            0040ac3c     PC2014.OBJ
 0001:00009c60       ___vba@06E563D4            0040ac60     PC2014.OBJ
 0001:00009c88       ___vba@06E563EC            0040ac88     PC2014.OBJ
 0001:00009ca8       ___vba@06E56424            0040aca8     PC2014.OBJ
 0001:00009cd0       ___vba@06E56ADC            0040acd0     PC2014.OBJ
 0001:00009cf0       ___vba@06E56B14            0040acf0     PC2014.OBJ
 0001:00009d14       ___vba@06E56B28            0040ad14     PC2014.OBJ
 0001:00009d34       ___vba@06E56B60            0040ad34     PC2014.OBJ
 0001:00009d44       ___vba@06E56B74            0040ad44     PC2014.OBJ
 0001:00009d74       ___vba@06E56B94            0040ad74     PC2014.OBJ
 0001:00009d94       ___vba@06E56BCC            0040ad94     PC2014.OBJ
 0001:00009dc0       ___vba@06E56BE8            0040adc0     PC2014.OBJ
 0001:00009de0       ___vba@06E56C20            0040ade0     PC2014.OBJ
 0001:00009e04       ___vba@06E56C34            0040ae04     PC2014.OBJ
 0001:00009e24       ___vba@06E56C6C            0040ae24     PC2014.OBJ
 0001:00009e48       ___vba@06E56C80            0040ae48     PC2014.OBJ
 0001:00009e68       ___vba@06E56CB8            0040ae68     PC2014.OBJ
 0001:00009e9c       ___vba@06E568B4            0040ae9c     PC2014.OBJ
 0001:00009ebc       ___vba@06E568EC            0040aebc     PC2014.OBJ
 0001:00009ee4       ___vba@06E56904            0040aee4     PC2014.OBJ
 0001:00009f04       ___vba@06E5693C            0040af04     PC2014.OBJ
 0001:00009f30       ___vba@06E56958            0040af30     PC2014.OBJ
 0001:00009f50       ___vba@06E56990            0040af50     PC2014.OBJ
 0001:00009f88       ___vba@06E569B8            0040af88     PC2014.OBJ
 0001:00009fa8       ___vba@06E569F0            0040afa8     PC2014.OBJ
 0001:00009fd4       ___vba@06E56A0C            0040afd4     PC2014.OBJ
 0001:00009ff4       ___vba@06E56A44            0040aff4     PC2014.OBJ
 0001:0000a020       ___vba@06E56A60            0040b020     PC2014.OBJ
 0001:0000a040       ___vba@06E56A98            0040b040     PC2014.OBJ
 0001:0000a06c       ___vba@06E56D04            0040b06c     PC2014.OBJ
 0001:0000a08c       ___vba@06E56D3C            0040b08c     PC2014.OBJ
 0001:0000a0b8       ___vba@06E56D58            0040b0b8     PC2014.OBJ
 0001:0000a0d8       ___vba@06E56D90            0040b0d8     PC2014.OBJ
 0001:0000a104       ___vba@06E56DAC            0040b104     PC2014.OBJ
 0001:0000a124       ___vba@06E56DE4            0040b124     PC2014.OBJ
 0001:0000a14c       ___vba@06E56DFC            0040b14c     PC2014.OBJ
 0001:0000a16c       ___vba@06E56E34            0040b16c     PC2014.OBJ
 0001:0000a194       ___vba@06E56E4C            0040b194     PC2014.OBJ
 0001:0000a1b4       ___vba@06E56E84            0040b1b4     PC2014.OBJ
 0001:0000a1e0       ___vba@06E56EA0            0040b1e0     PC2014.OBJ
 0001:0000a200       ___vba@06E56ED8            0040b200     PC2014.OBJ
 0001:0000a214       ___vba@06E56EF4            0040b214     PC2014.OBJ
 0001:0000a238       ___vba@06E56F2C            0040b238     PC2014.OBJ
 0001:0000a258       ___vba@06E56F64            0040b258     PC2014.OBJ
 0001:0000a288       ___vba@06E56F84            0040b288     PC2014.OBJ
 0001:0000a2a8       ___vba@06E56FBC            0040b2a8     PC2014.OBJ
 0001:0000a2d8       ___vba@06E56FDC            0040b2d8     PC2014.OBJ
 0001:0000a2f4       ___vba@06E57014            0040b2f4     PC2014.OBJ
 0001:0000a304       ___vba@06E57028            0040b304     PC2014.OBJ
 0001:0000a314       ___vba@06E5703C            0040b314     PC2014.OBJ
 0001:0000a324       ___vba@06E57050            0040b324     PC2014.OBJ
 0001:0000a334       ___vba@06E57064            0040b334     PC2014.OBJ
 0001:0000a344       ___vba@06E57078            0040b344     PC2014.OBJ
 0001:0000a34c       ___vba@06E57084            0040b34c     PC2014.OBJ
 0001:0000a35c       ___vba@06E57098            0040b35c     PC2014.OBJ
 0001:0000a368       ___vba@06E570A8            0040b368     PC2014.OBJ
 0001:0000a378       ___vba@06E570BC            0040b378     PC2014.OBJ
 0001:0000a39c       ___vba@06E570E4            0040b39c     PC2014.OBJ
 0001:0000a3ac       ___vba@06E570F8            0040b3ac     PC2014.OBJ
 0001:0000a3ec       ___vba@06E57154            0040b3ec     PC2014.OBJ
 0001:0000a408       ___vba@06E5718C            0040b408     PC2014.OBJ
 0001:0000a480       ___vba@06E57204            0040b480     PC2014.OBJ
 0001:0000a4b0       ___vba@06E57238            0040b4b0     PC2014.OBJ
 0001:0000a4bc       ___vba@06E57248            0040b4bc     PC2014.OBJ
 0001:0000a4cc       ___vba@06E5725C            0040b4cc     PC2014.OBJ
 0001:0000a4d8       ___vba@06E5726C            0040b4d8     PC2014.OBJ
 0001:0000a4e8       ___vba@06E57280            0040b4e8     PC2014.OBJ
 0001:0000a4f4       ___vba@06E57290            0040b4f4     PC2014.OBJ
 0001:0000a508       ___vba@06E572A8            0040b508     PC2014.OBJ
 0001:0000a514       ___vba@06E572B8            0040b514     PC2014.OBJ
 0001:0000a524       ___vba@06E572CC            0040b524     PC2014.OBJ
 0001:0000a534       ___vba@06E572E0            0040b534     PC2014.OBJ
 0001:0000a53c       ___vba@06E572EC            0040b53c     PC2014.OBJ
 0001:0000a544       ___vba@06E572F8            0040b544     PC2014.OBJ
 0001:0000a554       ___vba@06E5730C            0040b554     PC2014.OBJ
 0001:0000a584       ___vba@003A6FEC            0040b584     PC2014.OBJ
 0001:0000a598       ___vba@003A7000            0040b598     PC2014.OBJ
 0001:0000a5b4       ___vba@003A7020            0040b5b4     PC2014.OBJ
 0001:0000a5bc       ___vba@003A702C            0040b5bc     PC2014.OBJ
 0001:0000a5c4       ___vba@003A7038            0040b5c4     PC2014.OBJ
 0001:0000a5d0       ___vba@003A7048            0040b5d0     PC2014.OBJ
 0001:0000a5dc       ___vba@003A7058            0040b5dc     PC2014.OBJ
 0001:0000a608       ___vba@003A7088            0040b608     PC2014.OBJ
 0001:0000a624       ___vba@003A70A8            0040b624     PC2014.OBJ
 0001:0000a640       ___vba@003A70C8            0040b640     PC2014.OBJ
 0001:0000a644       ___vba@003A70D4            0040b644     PC2014.OBJ
 0001:0000a650       ___vba@003A711C            0040b650     PC2014.OBJ
 0001:0000a660       ___vba@06E573B4            0040b660     PC2014.OBJ
 0001:0000a670       ___vba@06E57400            0040b670     PC2014.OBJ
 0001:0000a680       ___vba@06E5744C            0040b680     PC2014.OBJ
 0001:0000a68c       ___vba@06E57494            0040b68c     PC2014.OBJ
 0001:0000a69c       ___vba@06E574E0            0040b69c     PC2014.OBJ
 0001:0000a6a8       ___vba@06E57528            0040b6a8     PC2014.OBJ
 0001:0000a6b8       ___vba@06E57A9C            0040b6b8     PC2014.OBJ
 0001:0000a6c4       ___vba@06E57AE4            0040b6c4     PC2014.OBJ
 0001:0000a6d0       ___vba@06E57B64            0040b6d0     PC2014.OBJ
 0001:0000a6e0       ___vba@06E57804            0040b6e0     PC2014.OBJ
 0001:0000a6ec       ___vba@06E5784C            0040b6ec     PC2014.OBJ
 0001:0000a700       ___vba@06E5789C            0040b700     PC2014.OBJ
 0001:0000a710       ___vba@06E57920            0040b710     PC2014.OBJ
 0001:0000a720       ___vba@06E57C54            0040b720     PC2014.OBJ
 0001:0000a730       ___vba@06E57CA0            0040b730     PC2014.OBJ
 0001:0000a740       ___vba@06E57CEC            0040b740     PC2014.OBJ
 0001:0000a754       ___vba@06E57D3C            0040b754     PC2014.OBJ
 0001:0000a76c       ___vba@06E57D8C            0040b76c     PC2014.OBJ
 0001:0000a770       ___vba@06E2500C            0040b770     PC2014.OBJ
 0001:0000a788       ___vba@06E2505C            0040b788     PC2014.OBJ
 0001:0000a7ac       ___vba@06E25088            0040b7ac     PC2014.OBJ
 0001:0000a7bc       ___vba@06E2509C            0040b7bc     PC2014.OBJ
 0001:0000a7cc       ___vba@06E250B0            0040b7cc     PC2014.OBJ
 0001:0000a7dc       ___vba@06E250C4            0040b7dc     PC2014.OBJ
 0001:0000a7ec       ___vba@06E250D8            0040b7ec     PC2014.OBJ
 0001:0000a7fc       ___vba@06E250EC            0040b7fc     PC2014.OBJ
 0001:0000a804       ___vba@06E250F8            0040b804     PC2014.OBJ
 0001:0000a814       ___vba@06E2510C            0040b814     PC2014.OBJ
 0001:0000a820       ___vba@06E2511C            0040b820     PC2014.OBJ
 0001:0000a830       ___vba@06E25130            0040b830     PC2014.OBJ
 0001:0000a840       ___vba@06E25144            0040b840     PC2014.OBJ
 0001:0000a848       ___vba@06E25150            0040b848     PC2014.OBJ
 0001:0000a854       ___vba@06E25160            0040b854     PC2014.OBJ
 0001:00018550       ___vba@00334EF4            00419550     PC2014.OBJ
 0001:00018590       ___vba@06E56014            00419590     PC2014.OBJ
 0001:000185d0       ___vba@003A5A5C            004195d0     PC2014.OBJ
 0001:00018610       ___vba@06E25424            00419610     PC2014.OBJ
 0001:00018650       ___vba@003A6DC4            00419650     PC2014.OBJ
 0001:00018690       ___vba@06E5668C            00419690     PC2014.OBJ
 0001:000186d0       ___vba@003A53E4            004196d0     PC2014.OBJ
 0001:00018710       ___vba@06EE7DEC            00419710     PC2014.OBJ
 0001:00018750       ___vba@003A491C            00419750     PC2014.OBJ
 0001:00018790       ___vba@060E28D4            00419790     PC2014.OBJ
 0001:000187d0       ___vba@060E2D24            004197d0     PC2014.OBJ
 0001:00018810       ___vba@003A3C2C            00419810     PC2014.OBJ
 0001:00018850       ___vba@060E0EF4            00419850     PC2014.OBJ
 0001:00018890       ___vba@060E2AFC            00419890     PC2014.OBJ
 0001:00018a18       ___vba@00333964            00419a18     PC2014.OBJ
 0001:00018a40       ___vba@00333990            00419a40     PC2014.OBJ
 0001:00018a4c       ___vba@003339A0            00419a4c     PC2014.OBJ
 0001:00018a58       ___vba@003339B0            00419a58     PC2014.OBJ
 0001:00018a64       ___vba@003339C0            00419a64     PC2014.OBJ
 0001:00018a70       ___vba@003339D0            00419a70     PC2014.OBJ
 0001:00018a7c       ___vba@003339E0            00419a7c     PC2014.OBJ
 0001:00018a88       ___vba@003339F0            00419a88     PC2014.OBJ
 0001:00018a94       ___vba@00333A00            00419a94     PC2014.OBJ
 0001:00018aa0       ___vba@00333A10            00419aa0     PC2014.OBJ
 0001:00018aac       ___vba@00333A20            00419aac     PC2014.OBJ
 0001:00018ab8       ___vba@00333A30            00419ab8     PC2014.OBJ
 0001:00018ac4       ___vba@00333A40            00419ac4     PC2014.OBJ
 0001:00018ac8       ___vba@00333A48            00419ac8     PC2014.OBJ
 0001:00018ad0       ___vba@00333A54            00419ad0     PC2014.OBJ
 0001:00018adc       ___vba@00333A64            00419adc     PC2014.OBJ
 0001:00018ae8       ___vba@00333A74            00419ae8     PC2014.OBJ
 0001:00018af4       ___vba@00333A84            00419af4     PC2014.OBJ
 0001:00018b00       ___vba@00333A94            00419b00     PC2014.OBJ
 0001:00018b10       VB@BTXT                    00419b10     PC2014.OBJ
 0001:00018b20       ?Check5_Click@Main@@AAGXXZ 00419b20 f   main.OBJ
 0001:00019410       ?Check6_Click@Main@@AAGXXZ 0041a410 f   main.OBJ
 0001:00019970       ?Check7_Click@Main@@AAGXXZ 0041a970 f   main.OBJ
 0001:00019fa0       ?Command1_Click@Main@@AAGXXZ 0041afa0 f   main.OBJ
 0001:0001a8e0       ?Command10_Click@Main@@AAGXXZ 0041b8e0 f   main.OBJ
 0001:0001a9d0       ?Command2_Click@Main@@AAGXXZ 0041b9d0 f   main.OBJ
 0001:0001b030       ?Command3_Click@Main@@AAGXXZ 0041c030 f   main.OBJ
 0001:0001b120       ?Command4_Click@Main@@AAGXXZ 0041c120 f   main.OBJ
 0001:0001b210       ?Command5_Click@Main@@AAGXXZ 0041c210 f   main.OBJ
 0001:0001b280       ?Command6_Click@Main@@AAGXXZ 0041c280 f   main.OBJ
 0001:0001b370       ?Command7_Click@Main@@AAGXXZ 0041c370 f   main.OBJ
 0001:0001b460       ?Command8_Click@Main@@AAGXXZ 0041c460 f   main.OBJ
 0001:0001b550       ?Command9_Click@Main@@AAGXXZ 0041c550 f   main.OBJ
 0001:0001b640       ?Form_Load@Main@@AAGXXZ    0041c640 f   main.OBJ
 0001:0001bb10       ?drawForm@VSKIN@@AAGXXZ    0041cb10 f   VSKIN.OBJ
 0001:0001da70       ?UserControl_DblClick@VSKIN@@AAGXXZ 0041ea70 f   VSKIN.OBJ
 0001:0001e220       ?drawButtons@VSKIN@@AAGXXZ 0041f220 f   VSKIN.OBJ
 0001:0001fe50       ?UserControl_Initialize@VSKIN@@AAGXXZ 00420e50 f   VSKIN.OBJ
 0001:0001fee0       ?UserControl_MouseDown@VSKIN@@AAGXXZ 00420ee0 f   VSKIN.OBJ
 0001:00020450       ?UserControl_MouseMove@VSKIN@@AAGXXZ 00421450 f   VSKIN.OBJ
 0001:000210a0       ?UserControl_MouseUp@VSKIN@@AAGXXZ 004220a0 f   VSKIN.OBJ
 0001:000218f0       ?UserControl_Paint@VSKIN@@AAGXXZ 004228f0 f   VSKIN.OBJ
 0001:00021980       ?UserControl_Resize@VSKIN@@AAGXXZ 00422980 f   VSKIN.OBJ
 0001:00021a10       ?UserControl_ReadProperties@VSKIN@@AAGXXZ 00422a10 f   VSKIN.OBJ
 0001:00021bc0       ?UserControl_WriteProperties@VSKIN@@AAGXXZ 00422bc0 f   VSKIN.OBJ
 0001:00021d00       ?Caption__Get@VSKIN@@AAGXXZ 00422d00 f   VSKIN.OBJ
 0001:00021d90       ?Caption__Let@VSKIN@@AAGXXZ 00422d90 f   VSKIN.OBJ
 0001:00021e20       ?Resize__Get@VSKIN@@AAGXXZ 00422e20 f   VSKIN.OBJ
 0001:00021e90       ?Resize__Let@VSKIN@@AAGXXZ 00422e90 f   VSKIN.OBJ
 0001:00021f60       ?Check1_Click@agree@@AAGXXZ 00422f60 f   agree.OBJ
 0001:00022180       ?Command2_Click@Process@@AAGXXZ 00423180 f   Process.OBJ
 0001:000226d0       ?Command1_Click@Process@@AAGXXZ 004236d0 f   Process.OBJ
 0001:00022c10       ?Form_Load@Process@@AAGXXZ 00423c10 f   Process.OBJ
 0001:00023150       ?Command1_Click@key@@AAGXXZ 00424150 f   key.OBJ
 0001:000234a0       ?Command1_Click@update@@AAGXXZ 004244a0 f   update.OBJ
 0001:00023880       ?Form_Load@update@@AAGXXZ  00424880 f   update.OBJ
 0001:00023ba0       ?Timer1_Timer@time@@AAGXXZ 00424ba0 f   time.OBJ
 0001:00023cd0       ?Command1_Click@admin@@AAGXXZ 00424cd0 f   admin.OBJ
 0001:000241d0       ?Command1_Click@shutdown@@AAGXXZ 004251d0 f   shutdown.OBJ
 0001:000242e0       ?Command2_Click@shutdown@@AAGXXZ 004252e0 f   shutdown.OBJ
 0001:00024390       ?Command1_Click@consol@@AAGXXZ 00425390 f   consol.OBJ
 0001:00024480       ?Command2_Click@consol@@AAGXXZ 00425480 f   consol.OBJ
 0001:00024570       ?CheckTimeout@ftpupload@@AAGXXZ 00425570 f   ftpupload.OBJ
 0001:000246e0       ?Command1_Click@ftpupload@@AAGXXZ 004256e0 f   ftpupload.OBJ
 0001:000252a0       ?File1_Click@ftpupload@@AAGXXZ 004262a0 f   ftpupload.OBJ
 0001:00025520       ?Winsock1_DataArrival@ftpupload@@AAGXXZ 00426520 f   ftpupload.OBJ
 0001:00025a80       ?Winsock2_ConnectionRequest@ftpupload@@AAGXXZ 00426a80 f   ftpupload.OBJ
 0001:00025c30       ?SendNextData@ftpupload@@AAGXXZ 00426c30 f   ftpupload.OBJ
 0001:00026030       ?Winsock2_SendComplete@ftpupload@@AAGXXZ 00427030 f   ftpupload.OBJ
 0001:00026160       ?KillProcessById@Module1@@AAGXXZ 00427160 f   Module1.OBJ
 0001:00026190       ?KillProcess@Module1@@AAGXXZ 00427190 f   Module1.OBJ
 0001:000266c0       ?CollectionProccess@Module2@@AAGXXZ 004276c0 f   Module2.OBJ
 0001:00026a80       ?Main@moduleMemoryClean@@AAGXXZ 00427a80 f   modulememoryclean[1].OBJ
 0001:00026ce0       ?CleanMem@moduleMemoryClean@@AAGXXZ 00427ce0 f   modulememoryclean[1].OBJ
 0001:00026d10       ?Timer1_Timer@Load@@AAGXXZ 00427d10 f   Load.OBJ
 0001:00026fa0       VB@ETXT                    00427fa0     PC2014.OBJ
 0002:00000000       __adjust_fdiv              00429000     VBAEXE6:natsupp.obj
 0002:00000008       VB@BSS                     00429008     PC2014.OBJ
 0002:00000010       ___vba@060E3CB8            00429010     PC2014.OBJ
 0002:00000024       _moduleMemoryClean         00429024     PC2014.OBJ
 0002:00000034       ___vba@060E3C70            00429034     PC2014.OBJ
 0002:00000048       ___vba@060E3D74            00429048     PC2014.OBJ
 0002:0000005c       ___vba@060E3D8C            0042905c     PC2014.OBJ
 0002:00000070       ___vba@060E3DA4            00429070     PC2014.OBJ
 0002:00000084       ___vba@060E3C88            00429084     PC2014.OBJ
 0002:00000098       ___vba@060E3E0C            00429098     PC2014.OBJ
 0002:000000ac       ___vba@060E3E24            004290ac     PC2014.OBJ
 0002:000000c0       _modFade                   004290c0     PC2014.OBJ
 0002:000000d0       _modMinSize                004290d0     PC2014.OBJ
 0002:000000ec       ___vba@060E3C58            004290ec     PC2014.OBJ
 0002:00000100       ___vba@06EE79F4            00429100     PC2014.OBJ
 0002:00000114       _Module1                   00429114     PC2014.OBJ
 0002:00000144       _Module2                   00429144     PC2014.OBJ
 0002:00000154       ___vba@06EE8AE4            00429154     PC2014.OBJ
 0002:00000168       ___vba@06EE8B0C            00429168     PC2014.OBJ
 0002:0000017c       _ftp                       0042917c     PC2014.OBJ
 0002:0000018c       ___vba@060E3CA0            0042918c     PC2014.OBJ
 0002:000001a0       ___vba@06E5778C            004291a0     PC2014.OBJ
 0002:00000b48       ___vba@060E21B8            00429b48     PC2014.OBJ
 0002:00000dac       ___vba@06E642E4            00429dac     PC2014.OBJ
 0002:000014b4       ___vba@06064174            0042a4b4     PC2014.OBJ
 0002:00001bb8       ___vba@06F09C0C            0042abb8     PC2014.OBJ
 0002:000022c4       ___vba@06E1A714            0042b2c4     PC2014.OBJ
 0002:000029cc       ___vba@06E19FFC            0042b9cc     PC2014.OBJ
 0002:000030d4       ___vba@06DF0D7C            0042c0d4     PC2014.OBJ
 0002:000037e0       ___vba@0610AC3C            0042c7e0     PC2014.OBJ
 0002:00003eec       ___vba@06E44914            0042ceec     PC2014.OBJ
 0002:000045f4       ___vba@06DFB69C            0042d5f4     PC2014.OBJ
 0002:00004cf8       ___vba@06E42F5C            0042dcf8     PC2014.OBJ
 0002:00005434       ___vba@06E62B14            0042e434     PC2014.OBJ
 0002:00005b54       ___vba@003CCBF4            0042eb54     PC2014.OBJ
 0002:0000625c       ___vba@06DFCA6C            0042f25c     PC2014.OBJ
 0002:0000696c       ___vba@0611D4E4            0042f96c     PC2014.OBJ

 entry point at        0001:00000bd4

 Static symbols

