 elete

 Timestamp is 53534503 (Sun Apr 20 12:54:43 2014)

 Preferred load address is 00400000

 Start         Length     Name                   Class
 0001:00000000 00000118H .idata$5                CODE
 0001:00000118 00000200H .rdata                  CODE
 0001:00000320 0000de6cH .text                   CODE
 0001:0000e190 00000004H .text$0                 CODE
 0001:0000e1a0 00006fe0H .text$1                 CODE
 0001:00015180 00000004H .text$2                 CODE
 0001:00015184 00000014H .idata$2                CODE
 0001:00015198 00000014H .idata$3                CODE
 0001:000151ac 00000118H .idata$4                CODE
 0001:000152c4 0000042cH .idata$6                CODE
 0001:000156f0 00000000H .edata                  CODE
 0002:00000000 00000004H .data                   DATA
 0002:00000008 000012d0H .bss                    DATA
 0003:00000000 00000118H .rsrc$01                DATA
 0003:00000120 000009c8H .rsrc$02                DATA

  Address         Publics by Value              Rva+Base     Lib:Object

 0001:00000000       __imp____vbaVarSub         00401000     elete1.OBJ
 0001:00000000       __imp_@__vbaVarSub         00401000     elete1.OBJ
 0001:00000004       __imp___CIcos              00401004     elete1.OBJ
 0001:00000008       __imp___adj_fptan          00401008     elete1.OBJ
 0001:0000000c       __imp____vbaVarMove        0040100c     elete1.OBJ
 0001:0000000c       __imp_@__vbaVarMove        0040100c     elete1.OBJ
 0001:00000010       __imp_@__vbaFreeVar        00401010     elete1.OBJ
 0001:00000010       __imp____vbaFreeVar        00401010     elete1.OBJ
 0001:00000014       __imp_@__vbaStrVarMove     00401014     elete1.OBJ
 0001:00000014       __imp____vbaStrVarMove     00401014     elete1.OBJ
 0001:00000018       __imp____vbaFreeVarList    00401018     elete1.OBJ
 0001:00000018       __imp_@__vbaFreeVarList    00401018     elete1.OBJ
 0001:0000001c       __imp____vbaEnd            0040101c     elete1.OBJ
 0001:0000001c       __imp_@__vbaEnd            0040101c     elete1.OBJ
 0001:00000020       __imp___adj_fdiv_m64       00401020     elete1.OBJ
 0001:00000024       __imp_@__vbaFreeObjList    00401024     elete1.OBJ
 0001:00000024       __imp____vbaFreeObjList    00401024     elete1.OBJ
 0001:00000028       __imp___adj_fprem1         00401028     elete1.OBJ
 0001:0000002c       __imp____vbaStrCat         0040102c     elete1.OBJ
 0001:0000002c       __imp_@__vbaStrCat         0040102c     elete1.OBJ
 0001:00000030       __imp_@__vbaSetSystemError 00401030     elete1.OBJ
 0001:00000030       __imp____vbaSetSystemError 00401030     elete1.OBJ
 0001:00000034       __imp_@__vbaHresultCheckObj 00401034     elete1.OBJ
 0001:00000034       __imp____vbaHresultCheckObj 00401034     elete1.OBJ
 0001:00000038       __imp___adj_fdiv_m32       00401038     elete1.OBJ
 0001:0000003c       __imp____vbaVarTstLe       0040103c     elete1.OBJ
 0001:0000003c       __imp_@__vbaVarTstLe       0040103c     elete1.OBJ
 0001:00000040       __imp_@__vbaLateMemSt      00401040     elete1.OBJ
 0001:00000040       __imp____vbaLateMemSt      00401040     elete1.OBJ
 0001:00000044       __imp____vbaOnError        00401044     elete1.OBJ
 0001:00000044       __imp_@__vbaOnError        00401044     elete1.OBJ
 0001:00000048       __imp_@__vbaObjSet         00401048     elete1.OBJ
 0001:00000048       __imp____vbaObjSet         00401048     elete1.OBJ
 0001:0000004c       __imp___adj_fdiv_m16i      0040104c     elete1.OBJ
 0001:00000050       __imp___adj_fdivr_m16i     00401050     elete1.OBJ
 0001:00000054       __imp____vbaFpR4           00401054     elete1.OBJ
 0001:00000054       __imp_@__vbaFpR4           00401054     elete1.OBJ
 0001:00000058       __imp____vbaBoolVar        00401058     elete1.OBJ
 0001:00000058       __imp_@__vbaBoolVar        00401058     elete1.OBJ
 0001:0000005c       __imp____vbaBoolVarNull    0040105c     elete1.OBJ
 0001:0000005c       __imp_@__vbaBoolVarNull    0040105c     elete1.OBJ
 0001:00000060       __imp_@__vbaFpR8           00401060     elete1.OBJ
 0001:00000060       __imp____vbaFpR8           00401060     elete1.OBJ
 0001:00000064       __imp___CIsin              00401064     elete1.OBJ
 0001:00000068       __imp____vbaChkstk         00401068     elete1.OBJ
 0001:00000070       __imp____vbaStrCmp         00401070     elete1.OBJ
 0001:00000070       __imp_@__vbaStrCmp         00401070     elete1.OBJ
 0001:00000074       __imp_@__vbaI2I4           00401074     elete1.OBJ
 0001:00000074       __imp____vbaI2I4           00401074     elete1.OBJ
 0001:0000007c       __imp___adj_fpatan         0040107c     elete1.OBJ
 0001:00000080       __imp_@__vbaR4Var          00401080     elete1.OBJ
 0001:00000080       __imp____vbaR4Var          00401080     elete1.OBJ
 0001:00000088       __imp_@__vba@0032BF04      00401088     elete1.OBJ
 0001:00000088       __imp____vba@0032BF04      00401088     elete1.OBJ
 0001:0000008c       __imp___CIsqrt             0040108c     elete1.OBJ
 0001:00000090       __imp_@__vbaVarAnd         00401090     elete1.OBJ
 0001:00000090       __imp____vbaVarAnd         00401090     elete1.OBJ
 0001:00000098       __imp____vbaExceptHandler  00401098     elete1.OBJ
 0001:0000009c       __imp____vbaStrToUnicode   0040109c     elete1.OBJ
 0001:0000009c       __imp_@__vbaStrToUnicode   0040109c     elete1.OBJ
 0001:000000a0       __imp___adj_fprem          004010a0     elete1.OBJ
 0001:000000a4       __imp___adj_fdivr_m64      004010a4     elete1.OBJ
 0001:000000a8       __imp_@__vbaVarDiv         004010a8     elete1.OBJ
 0001:000000a8       __imp____vbaVarDiv         004010a8     elete1.OBJ
 0001:000000ac       __imp____vbaVarCmpLe       004010ac     elete1.OBJ
 0001:000000ac       __imp_@__vbaVarCmpLe       004010ac     elete1.OBJ
 0001:000000b0       __imp____vbaFPException    004010b0     elete1.OBJ
 0001:000000b4       __imp____vba@0032D7F8      004010b4     elete1.OBJ
 0001:000000b4       __imp_@__vba@0032D7F8      004010b4     elete1.OBJ
 0001:000000b8       __imp___CIlog              004010b8     elete1.OBJ
 0001:000000bc       __imp____vbaErrorOverflow  004010bc     elete1.OBJ
 0001:000000bc       __imp_@__vbaErrorOverflow  004010bc     elete1.OBJ
 0001:000000c0       __imp____vbaNew2           004010c0     elete1.OBJ
 0001:000000c0       __imp_@__vbaNew2           004010c0     elete1.OBJ
 0001:000000c4       __imp___adj_fdiv_m32i      004010c4     elete1.OBJ
 0001:000000c8       __imp___adj_fdivr_m32i     004010c8     elete1.OBJ
 0001:000000cc       __imp____vbaStrCopy        004010cc     elete1.OBJ
 0001:000000cc       __imp_@__vbaStrCopy        004010cc     elete1.OBJ
 0001:000000d0       __imp_@__vbaVarCmpLt       004010d0     elete1.OBJ
 0001:000000d0       __imp____vbaVarCmpLt       004010d0     elete1.OBJ
 0001:000000d4       __imp____vbaFreeStrList    004010d4     elete1.OBJ
 0001:000000d4       __imp_@__vbaFreeStrList    004010d4     elete1.OBJ
 0001:000000d8       __imp___adj_fdivr_m32      004010d8     elete1.OBJ
 0001:000000dc       __imp___adj_fdiv_r         004010dc     elete1.OBJ
 0001:000000e4       __imp_@__vbaI4Var          004010e4     elete1.OBJ
 0001:000000e4       __imp____vbaI4Var          004010e4     elete1.OBJ
 0001:000000e8       __imp____vbaStrToAnsi      004010e8     elete1.OBJ
 0001:000000e8       __imp_@__vbaStrToAnsi      004010e8     elete1.OBJ
 0001:000000ec       __imp_@__vbaFpI4           004010ec     elete1.OBJ
 0001:000000ec       __imp____vbaFpI4           004010ec     elete1.OBJ
 0001:000000f0       __imp____vbaLateMemCallLd  004010f0     elete1.OBJ
 0001:000000f0       __imp_@__vbaLateMemCallLd  004010f0     elete1.OBJ
 0001:000000f4       __imp___CIatan             004010f4     elete1.OBJ
 0001:000000f8       __imp____vbaStrMove        004010f8     elete1.OBJ
 0001:000000f8       __imp_@__vbaStrMove        004010f8     elete1.OBJ
 0001:000000fc       __imp___allmul             004010fc     elete1.OBJ
 0001:00000100       __imp_@__vbaLenVarB        00401100     elete1.OBJ
 0001:00000100       __imp____vbaLenVarB        00401100     elete1.OBJ
 0001:00000104       __imp___CItan              00401104     elete1.OBJ
 0001:00000108       __imp___CIexp              00401108     elete1.OBJ
 0001:0000010c       __imp____vbaFreeObj        0040110c     elete1.OBJ
 0001:0000010c       __imp_@__vbaFreeObj        0040110c     elete1.OBJ
 0001:00000110       __imp_@__vbaFreeStr        00401110     elete1.OBJ
 0001:00000110       __imp____vbaFreeStr        00401110     elete1.OBJ
 0001:000001bc       __real@4@4003d000000000000000 004011bc     VSKIN.OBJ
 0001:000001c0       __real@4@40039000000000000000 004011c0     VSKIN.OBJ
 0001:000001c4       __real@4@4002a000000000000000 004011c4     VSKIN.OBJ
 0001:000001c8       __real@4@4002f000000000000000 004011c8     VSKIN.OBJ
 0001:000001cc       __real@4@4003a000000000000000 004011cc     VSKIN.OBJ
 0001:000001f8       __real@4@4003f000000000000000 004011f8     VSKIN.OBJ
 0001:00000200       __real@8@4000c000000000000000 00401200     VSKIN.OBJ
 0001:000002b0       __real@4@00000000000000000000 004012b0     VSKIN.OBJ
 0001:000002b4       __real@4@40038000000000000000 004012b4     VSKIN.OBJ
 0001:00000320       ___vbaChkstk               00401320     elete1.OBJ
 0001:00000320       VB@TEXT                    00401320     elete1.OBJ
 0001:00000326       ___vbaExceptHandler        00401326     elete1.OBJ
 0001:0000032c       ___vbaFPException          0040132c     elete1.OBJ
 0001:00000332       __adj_fdiv_m16i            00401332     elete1.OBJ
 0001:00000338       __adj_fdiv_m32             00401338     elete1.OBJ
 0001:0000033e       __adj_fdiv_m32i            0040133e     elete1.OBJ
 0001:00000344       __adj_fdiv_m64             00401344     elete1.OBJ
 0001:0000034a       __adj_fdiv_r               0040134a     elete1.OBJ
 0001:00000350       __adj_fdivr_m16i           00401350     elete1.OBJ
 0001:00000356       __adj_fdivr_m32            00401356     elete1.OBJ
 0001:0000035c       __adj_fdivr_m32i           0040135c     elete1.OBJ
 0001:00000362       __adj_fdivr_m64            00401362     elete1.OBJ
 0001:00000368       __adj_fpatan               00401368     elete1.OBJ
 0001:0000036e       __adj_fprem                0040136e     elete1.OBJ
 0001:00000374       __adj_fprem1               00401374     elete1.OBJ
 0001:0000037a       __adj_fptan                0040137a     elete1.OBJ
 0001:00000380       __CIatan                   00401380     elete1.OBJ
 0001:00000386       __CIcos                    00401386     elete1.OBJ
 0001:0000038c       __CIexp                    0040138c     elete1.OBJ
 0001:00000392       __CIlog                    00401392     elete1.OBJ
 0001:00000398       __CIsin                    00401398     elete1.OBJ
 0001:0000039e       __CIsqrt                   0040139e     elete1.OBJ
 0001:000003a4       __CItan                    004013a4     elete1.OBJ
 0001:000003aa       __allmul                   004013aa     elete1.OBJ
 0001:000003b0       ___vbaEnd                  004013b0     elete1.OBJ
 0001:000003b0       @__vbaEnd                  004013b0     elete1.OBJ
 0001:000003b6       ___vbaFreeVar              004013b6     elete1.OBJ
 0001:000003b6       @__vbaFreeVar              004013b6     elete1.OBJ
 0001:000003bc       @__vbaNew2                 004013bc     elete1.OBJ
 0001:000003bc       ___vbaNew2                 004013bc     elete1.OBJ
 0001:000003c2       @__vba@0032BF04            004013c2     elete1.OBJ
 0001:000003c2       ___vba@0032BF04            004013c2     elete1.OBJ
 0001:000003c8       @__vbaFreeObjList          004013c8     elete1.OBJ
 0001:000003c8       ___vbaFreeObjList          004013c8     elete1.OBJ
 0001:000003ce       ___vbaFreeStrList          004013ce     elete1.OBJ
 0001:000003ce       @__vbaFreeStrList          004013ce     elete1.OBJ
 0001:000003d4       @__vbaStrCat               004013d4     elete1.OBJ
 0001:000003d4       ___vbaStrCat               004013d4     elete1.OBJ
 0001:000003da       ___vbaStrMove              004013da     elete1.OBJ
 0001:000003da       @__vbaStrMove              004013da     elete1.OBJ
 0001:000003e0       @__vbaFreeStr              004013e0     elete1.OBJ
 0001:000003e0       ___vbaFreeStr              004013e0     elete1.OBJ
 0001:000003e6       @__vbaStrCmp               004013e6     elete1.OBJ
 0001:000003e6       ___vbaStrCmp               004013e6     elete1.OBJ
 0001:000003ec       ___vbaFreeObj              004013ec     elete1.OBJ
 0001:000003ec       @__vbaFreeObj              004013ec     elete1.OBJ
 0001:000003f2       ___vbaHresultCheckObj      004013f2     elete1.OBJ
 0001:000003f2       @__vbaHresultCheckObj      004013f2     elete1.OBJ
 0001:000003f8       @__vbaObjSet               004013f8     elete1.OBJ
 0001:000003f8       ___vbaObjSet               004013f8     elete1.OBJ
 0001:00000404       @__vbaBoolVar              00401404     elete1.OBJ
 0001:00000404       ___vbaBoolVar              00401404     elete1.OBJ
 0001:0000040a       @__vbaStrVarMove           0040140a     elete1.OBJ
 0001:0000040a       ___vbaStrVarMove           0040140a     elete1.OBJ
 0001:00000410       @__vbaStrCopy              00401410     elete1.OBJ
 0001:00000410       ___vbaStrCopy              00401410     elete1.OBJ
 0001:00000416       ___vbaVarDiv               00401416     elete1.OBJ
 0001:00000416       @__vbaVarDiv               00401416     elete1.OBJ
 0001:0000041c       @__vbaVarCmpLe             0040141c     elete1.OBJ
 0001:0000041c       ___vbaVarCmpLe             0040141c     elete1.OBJ
 0001:00000422       @__vbaFpR4                 00401422     elete1.OBJ
 0001:00000422       ___vbaFpR4                 00401422     elete1.OBJ
 0001:00000428       @__vbaI2I4                 00401428     elete1.OBJ
 0001:00000428       ___vbaI2I4                 00401428     elete1.OBJ
 0001:0000042e       ___vbaFpR8                 0040142e     elete1.OBJ
 0001:0000042e       @__vbaFpR8                 0040142e     elete1.OBJ
 0001:00000434       ___vbaVarSub               00401434     elete1.OBJ
 0001:00000434       @__vbaVarSub               00401434     elete1.OBJ
 0001:0000043a       ___vbaVarTstLe             0040143a     elete1.OBJ
 0001:0000043a       @__vbaVarTstLe             0040143a     elete1.OBJ
 0001:00000440       ___vbaVarCmpLt             00401440     elete1.OBJ
 0001:00000440       @__vbaVarCmpLt             00401440     elete1.OBJ
 0001:00000446       @__vbaVarAnd               00401446     elete1.OBJ
 0001:00000446       ___vbaVarAnd               00401446     elete1.OBJ
 0001:0000044c       @__vbaBoolVarNull          0040144c     elete1.OBJ
 0001:0000044c       ___vbaBoolVarNull          0040144c     elete1.OBJ
 0001:00000452       @__vbaVarMove              00401452     elete1.OBJ
 0001:00000452       ___vbaVarMove              00401452     elete1.OBJ
 0001:00000458       @__vbaErrorOverflow        00401458     elete1.OBJ
 0001:00000458       ___vbaErrorOverflow        00401458     elete1.OBJ
 0001:0000045e       ___vbaR4Var                0040145e     elete1.OBJ
 0001:0000045e       @__vbaR4Var                0040145e     elete1.OBJ
 0001:00000464       @__vbaLateMemSt            00401464     elete1.OBJ
 0001:00000464       ___vbaLateMemSt            00401464     elete1.OBJ
 0001:0000046a       ___vbaLateMemCallLd        0040146a     elete1.OBJ
 0001:0000046a       @__vbaLateMemCallLd        0040146a     elete1.OBJ
 0001:00000470       ___vbaFreeVarList          00401470     elete1.OBJ
 0001:00000470       @__vbaFreeVarList          00401470     elete1.OBJ
 0001:00000476       @__vbaStrToUnicode         00401476     elete1.OBJ
 0001:00000476       ___vbaStrToUnicode         00401476     elete1.OBJ
 0001:0000047c       @__vbaStrToAnsi            0040147c     elete1.OBJ
 0001:0000047c       ___vbaStrToAnsi            0040147c     elete1.OBJ
 0001:00000482       ___vba@0032D7F8            00401482     elete1.OBJ
 0001:00000482       @__vba@0032D7F8            00401482     elete1.OBJ
 0001:00000488       ___vbaLenVarB              00401488     elete1.OBJ
 0001:00000488       @__vbaLenVarB              00401488     elete1.OBJ
 0001:0000048e       ___vbaI4Var                0040148e     elete1.OBJ
 0001:0000048e       @__vbaI4Var                0040148e     elete1.OBJ
 0001:00000494       ___vbaFpI4                 00401494     elete1.OBJ
 0001:00000494       @__vbaFpI4                 00401494     elete1.OBJ
 0001:0000049a       @__vbaSetSystemError       0040149a     elete1.OBJ
 0001:0000049a       ___vbaSetSystemError       0040149a     elete1.OBJ
 0001:000004a0       @__vbaOnError              004014a0     elete1.OBJ
 0001:000004a0       ___vbaOnError              004014a0     elete1.OBJ
 0001:000004c0       ___vbaS                    004014c0     elete1.OBJ
 0001:00001870       ___vba@0032B944            00402870     elete1.OBJ
 0001:00001c60       ___vba@0032D324            00402c60     elete1.OBJ
 0001:00001d84       ___vba@0032D37C            00402d84     elete1.OBJ
 0001:00001d8c       ___vba@0032D388            00402d8c     elete1.OBJ
 0001:00001d94       ___vba@0032D394            00402d94     elete1.OBJ
 0001:00001da0       ___vba@0032D3A4            00402da0     elete1.OBJ
 0001:00001db0       ___vba@0032D3B8            00402db0     elete1.OBJ
 0001:00001dc0       ___vba@0032D3CC            00402dc0     elete1.OBJ
 0001:00001dd0       ___vba@0032D3E0            00402dd0     elete1.OBJ
 0001:00001de0       ___vba@0032D3F4            00402de0     elete1.OBJ
 0001:00001df0       ___vba@0032D408            00402df0     elete1.OBJ
 0001:00001df8       ___vba@0032D414            00402df8     elete1.OBJ
 0001:00001e08       ___vba@0032D428            00402e08     elete1.OBJ
 0001:00001e44       ___vba@0032D468            00402e44     elete1.OBJ
 0001:00001e48       ___vba@0032D470            00402e48     elete1.OBJ
 0001:00001e70       ___vba@0032D49C            00402e70     elete1.OBJ
 0001:00001e78       ___vba@0032D4A8            00402e78     elete1.OBJ
 0001:00001e80       ___vba@0032D4B4            00402e80     elete1.OBJ
 0001:00001e90       ___vba@0032D4C8            00402e90     elete1.OBJ
 0001:00001e9c       ___vba@0032D4D8            00402e9c     elete1.OBJ
 0001:00001eac       ___vba@0032D4EC            00402eac     elete1.OBJ
 0001:00001eb4       ___vba@0032D4F8            00402eb4     elete1.OBJ
 0001:00001ec4       ___vba@0032D50C            00402ec4     elete1.OBJ
 0001:00001ecc       ___vba@0032D518            00402ecc     elete1.OBJ
 0001:00001ed4       ___vba@0032B0A4            00402ed4     elete1.OBJ
 0001:00001edc       ___vba@0032B0B0            00402edc     elete1.OBJ
 0001:00001eec       ___vba@0032B0C4            00402eec     elete1.OBJ
 0001:00001ef4       ___vba@0032B0D0            00402ef4     elete1.OBJ
 0001:00001f00       ___vba@0032B0E0            00402f00     elete1.OBJ
 0001:00001f08       ___vba@0032B0EC            00402f08     elete1.OBJ
 0001:00001f10       ___vba@0032B0F8            00402f10     elete1.OBJ
 0001:00001f18       ___vba@0032B104            00402f18     elete1.OBJ
 0001:00001f20       ___vba@0032B110            00402f20     elete1.OBJ
 0001:00001f28       ___vba@0032B11C            00402f28     elete1.OBJ
 0001:00001f30       ___vba@0032B128            00402f30     elete1.OBJ
 0001:00001f38       ___vba@0032B134            00402f38     elete1.OBJ
 0001:00001f40       ___vba@0032B140            00402f40     elete1.OBJ
 0001:00001f48       ___vba@0032B14C            00402f48     elete1.OBJ
 0001:00001f50       ___vba@0032B158            00402f50     elete1.OBJ
 0001:00001f58       ___vba@0032B164            00402f58     elete1.OBJ
 0001:00001f60       ___vba@0032B170            00402f60     elete1.OBJ
 0001:00001f6c       ___vba@0032B180            00402f6c     elete1.OBJ
 0001:00001f7c       ___vba@0032B194            00402f7c     elete1.OBJ
 0001:00001f90       ___vba@0032B1A8            00402f90     elete1.OBJ
 0001:00001fb0       ___vba@0032B1CC            00402fb0     elete1.OBJ
 0001:00001fbc       ___vba@0032B1DC            00402fbc     elete1.OBJ
 0001:00001fc8       ___vba@0032B1EC            00402fc8     elete1.OBJ
 0001:00001fe4       ___vba@0032B20C            00402fe4     elete1.OBJ
 0001:00002000       ___vba@0032B22C            00403000     elete1.OBJ
 0001:00002018       ___vba@0032B248            00403018     elete1.OBJ
 0001:00002050       ___vba@0032B284            00403050     elete1.OBJ
 0001:00002068       ___vba@0032BD94            00403068     elete1.OBJ
 0001:00002078       ___vba@0032BDA8            00403078     elete1.OBJ
 0001:00002088       ___vba@0032BDBC            00403088     elete1.OBJ
 0001:00002098       ___vba@0032BDD0            00403098     elete1.OBJ
 0001:000020ac       ___vba@0032BDE4            004030ac     elete1.OBJ
 0001:000020b4       ___vba@0032BDF0            004030b4     elete1.OBJ
 0001:000020c8       ___vba@0032BE0C            004030c8     elete1.OBJ
 0001:000020d4       ___vba@0032BE1C            004030d4     elete1.OBJ
 0001:000020e0       ___vba@0032BE64            004030e0     elete1.OBJ
 0001:000020f0       ___vba@0032BEB0            004030f0     elete1.OBJ
 0001:00002104       ___vba@0032BF3C            00403104     elete1.OBJ
 0001:00002118       ___vba@0032E014            00403118     elete1.OBJ
 0001:0000212c       ___vba@0032E064            0040312c     elete1.OBJ
 0001:00002138       ___vba@0032E0AC            00403138     elete1.OBJ
 0001:00002148       ___vba@0032E0F8            00403148     elete1.OBJ
 0001:00002158       ___vba@0032E144            00403158     elete1.OBJ
 0001:00002164       ___vba@0032E18C            00403164     elete1.OBJ
 0001:00002174       ___vba@0032E1D8            00403174     elete1.OBJ
 0001:0000218c       ___vba@0032E1F4            0040318c     elete1.OBJ
 0001:0000219c       ___vba@0032E274            0040319c     elete1.OBJ
 0001:000021a8       ___vba@0032E2BC            004031a8     elete1.OBJ
 0001:000021b8       ___vba@0032E2D0            004031b8     elete1.OBJ
 0001:000021c8       ___vba@0032E2E4            004031c8     elete1.OBJ
 0001:000021d8       ___vba@0032E2F8            004031d8     elete1.OBJ
 0001:000021e8       ___vba@0032E30C            004031e8     elete1.OBJ
 0001:000021f8       ___vba@0032E320            004031f8     elete1.OBJ
 0001:00002208       ___vba@0032E334            00403208     elete1.OBJ
 0001:00002214       ___vba@0032E344            00403214     elete1.OBJ
 0001:00002220       ___vba@0032E354            00403220     elete1.OBJ
 0001:00002230       ___vba@0032E368            00403230     elete1.OBJ
 0001:0000223c       ___vba@0032E378            0040323c     elete1.OBJ
 0001:00002248       ___vba@0032E388            00403248     elete1.OBJ
 0001:00002258       ___vba@0032E398            00403258     elete1.OBJ
 0001:00002268       ___vba@0032E3AC            00403268     elete1.OBJ
 0001:00002290       ___vba@0032E3C4            00403290     elete1.OBJ
 0001:000022b0       ___vba@0032E3FC            004032b0     elete1.OBJ
 0001:000022c4       ___vba@0032E414            004032c4     elete1.OBJ
 0001:000022ec       ___vba@0032E68C            004032ec     elete1.OBJ
 0001:0000230c       ___vba@0032E6C4            0040330c     elete1.OBJ
 0001:00002318       ___vba@0032E6D4            00403318     elete1.OBJ
 0001:00002348       ___vba@0032E6F4            00403348     elete1.OBJ
 0001:00002368       ___vba@0032E72C            00403368     elete1.OBJ
 0001:00002378       ___vba@0032E740            00403378     elete1.OBJ
 0001:0000239c       ___vba@0032E754            0040339c     elete1.OBJ
 0001:000023bc       ___vba@0032E78C            004033bc     elete1.OBJ
 0001:000023e0       ___vba@0032E7A0            004033e0     elete1.OBJ
 0001:00002400       ___vba@0032E7D8            00403400     elete1.OBJ
 0001:00002420       ___vba@0032E7E8            00403420     elete1.OBJ
 0001:00002440       ___vba@0032E820            00403440     elete1.OBJ
 0001:00002468       ___vba@0032E838            00403468     elete1.OBJ
 0001:00002488       ___vba@0032E870            00403488     elete1.OBJ
 0001:000024ac       ___vba@0032E8B4            004034ac     elete1.OBJ
 0001:000024cc       ___vba@0032E8EC            004034cc     elete1.OBJ
 0001:000024f0       ___vba@0032E900            004034f0     elete1.OBJ
 0001:00002510       ___vba@0032E938            00403510     elete1.OBJ
 0001:00002538       ___vba@0032E950            00403538     elete1.OBJ
 0001:00002558       ___vba@0032E988            00403558     elete1.OBJ
 0001:00002580       ___vba@0032E9A0            00403580     elete1.OBJ
 0001:0000259c       ___vba@0032E9D8            0040359c     elete1.OBJ
 0001:000025a8       ___vba@0032E9E8            004035a8     elete1.OBJ
 0001:000025b4       ___vba@0032E9F8            004035b4     elete1.OBJ
 0001:000025bc       ___vba@0032EA04            004035bc     elete1.OBJ
 0001:000025c4       ___vba@0032EA10            004035c4     elete1.OBJ
 0001:000025d4       ___vba@0032EA24            004035d4     elete1.OBJ
 0001:000025e4       ___vba@0032EA38            004035e4     elete1.OBJ
 0001:000025f0       ___vba@0032EA48            004035f0     elete1.OBJ
 0001:000025fc       ___vba@0032EA58            004035fc     elete1.OBJ
 0001:00002604       ___vba@0032EA64            00403604     elete1.OBJ
 0001:00002614       ___vba@0032EA78            00403614     elete1.OBJ
 0001:00002620       ___vba@0032EA88            00403620     elete1.OBJ
 0001:0000263c       ___vba@06A50104            0040363c     elete1.OBJ
 0001:0000264c       ___vba@06A5011C            0040364c     elete1.OBJ
 0001:0000265c       ___vba@06A50168            0040365c     elete1.OBJ
 0001:0000266c       ___vba@06A501B4            0040366c     elete1.OBJ
 0001:0000267c       ___vba@06A50200            0040367c     elete1.OBJ
 0001:00002688       ___vba@06A50248            00403688     elete1.OBJ
 0001:00002698       ___vba@06A50294            00403698     elete1.OBJ
 0001:000026a4       ___vba@06A502DC            004036a4     elete1.OBJ
 0001:000026b0       ___vba@06A502EC            004036b0     elete1.OBJ
 0001:000026c4       ___vba@06A5058C            004036c4     elete1.OBJ
 0001:000026d0       ___vba@06A505D4            004036d0     elete1.OBJ
 0001:000026dc       ___vba@06A5061C            004036dc     elete1.OBJ
 0001:000026ec       ___vba@06A50668            004036ec     elete1.OBJ
 0001:000026fc       ___vba@06A506B4            004036fc     elete1.OBJ
 0001:00002708       ___vba@06A506FC            00403708     elete1.OBJ
 0001:0000271c       ___vba@06A507B4            0040371c     elete1.OBJ
 0001:00002730       ___vba@06A50804            00403730     elete1.OBJ
 0001:0000273c       ___vba@06A5084C            0040373c     elete1.OBJ
 0001:0000274c       ___vba@06A50898            0040374c     elete1.OBJ
 0001:00002760       ___vba@06A508E8            00403760     elete1.OBJ
 0001:00002774       ___vba@06A50938            00403774     elete1.OBJ
 0001:00002788       ___vba@0032D7AC            00403788     elete1.OBJ
 0001:00002798       ___vba@0032D830            00403798     elete1.OBJ
 0001:000027a8       ___vba@0032D87C            004037a8     elete1.OBJ
 0001:000027b4       ___vba@0032D8C4            004037b4     elete1.OBJ
 0001:000027c0       ___vba@0032D90C            004037c0     elete1.OBJ
 0001:000027d4       ___vba@0032D95C            004037d4     elete1.OBJ
 0001:000027e8       ___vba@0032B4F4            004037e8     elete1.OBJ
 0001:0000df8c       ___vba@0032B2CC            0040ef8c     elete1.OBJ
 0001:0000dfcc       ___vba@0032B71C            0040efcc     elete1.OBJ
 0001:0000e074       ___vba@0032D0FC            0040f074     elete1.OBJ
 0001:0000e09c       ___vba@0032D128            0040f09c     elete1.OBJ
 0001:0000e0a8       ___vba@0032D138            0040f0a8     elete1.OBJ
 0001:0000e0b4       ___vba@0032D148            0040f0b4     elete1.OBJ
 0001:0000e0c0       ___vba@0032D158            0040f0c0     elete1.OBJ
 0001:0000e0cc       ___vba@0032D168            0040f0cc     elete1.OBJ
 0001:0000e0d8       ___vba@0032D178            0040f0d8     elete1.OBJ
 0001:0000e0e4       ___vba@0032D188            0040f0e4     elete1.OBJ
 0001:0000e0f0       ___vba@0032D198            0040f0f0     elete1.OBJ
 0001:0000e0f4       ___vba@0032D1A0            0040f0f4     elete1.OBJ
 0001:0000e190       VB@BTXT                    0040f190     elete1.OBJ
 0001:0000e1a0       ?Command1_Click@elete@@AAGXXZ 0040f1a0 f   elete.OBJ
 0001:0000ebc0       ?Command2_Click@elete@@AAGXXZ 0040fbc0 f   elete.OBJ
 0001:0000ed30       ?drawForm@VSKIN@@AAGXXZ    0040fd30 f   VSKIN.OBJ
 0001:00010c90       ?UserControl_DblClick@VSKIN@@AAGXXZ 00411c90 f   VSKIN.OBJ
 0001:00011440       ?drawButtons@VSKIN@@AAGXXZ 00412440 f   VSKIN.OBJ
 0001:00013070       ?UserControl_Initialize@VSKIN@@AAGXXZ 00414070 f   VSKIN.OBJ
 0001:00013100       ?UserControl_MouseDown@VSKIN@@AAGXXZ 00414100 f   VSKIN.OBJ
 0001:00013670       ?UserControl_MouseMove@VSKIN@@AAGXXZ 00414670 f   VSKIN.OBJ
 0001:000142c0       ?UserControl_MouseUp@VSKIN@@AAGXXZ 004152c0 f   VSKIN.OBJ
 0001:00014b10       ?UserControl_Paint@VSKIN@@AAGXXZ 00415b10 f   VSKIN.OBJ
 0001:00014ba0       ?UserControl_Resize@VSKIN@@AAGXXZ 00415ba0 f   VSKIN.OBJ
 0001:00014c30       ?UserControl_ReadProperties@VSKIN@@AAGXXZ 00415c30 f   VSKIN.OBJ
 0001:00014de0       ?UserControl_WriteProperties@VSKIN@@AAGXXZ 00415de0 f   VSKIN.OBJ
 0001:00014f20       ?Caption__Get@VSKIN@@AAGXXZ 00415f20 f   VSKIN.OBJ
 0001:00014fb0       ?Caption__Let@VSKIN@@AAGXXZ 00415fb0 f   VSKIN.OBJ
 0001:00015040       ?Resize__Get@VSKIN@@AAGXXZ 00416040 f   VSKIN.OBJ
 0001:000150b0       ?Resize__Let@VSKIN@@AAGXXZ 004160b0 f   VSKIN.OBJ
 0001:00015180       VB@ETXT                    00416180     elete1.OBJ
 0002:00000000       __adjust_fdiv              00417000     VBAEXE6:natsupp.obj
 0002:00000008       VB@BSS                     00417008     elete1.OBJ
 0002:00000010       ___vba@0032D580            00417010     elete1.OBJ
 0002:00000024       ___vba@0032D568            00417024     elete1.OBJ
 0002:0000033c       ___vba@0032BEF8            0041733c     elete1.OBJ
 0002:000003ec       ___vba@06A1CDC4            004173ec     elete1.OBJ
 0002:00000af8       ___vba@06A2BCCC            00417af8     elete1.OBJ

 entry point at        0001:000004c0

 Static symbols

