 load

 Timestamp is 53550178 (Mon Apr 21 20:31:04 2014)

 Preferred load address is 00400000

 Start         Length     Name                   Class
 0001:00000000 000000b8H .idata$5                CODE
 0001:000000b8 00000010H .rdata                  CODE
 0001:000000d0 000013ccH .text                   CODE
 0001:000014a0 00000004H .text$0                 CODE
 0001:000014b0 00000450H .text$1                 CODE
 0001:00001900 00000004H .text$2                 CODE
 0001:00001904 00000014H .idata$2                CODE
 0001:00001918 00000014H .idata$3                CODE
 0001:0000192c 000000b8H .idata$4                CODE
 0001:000019e4 00000280H .idata$6                CODE
 0001:00001c64 00000000H .edata                  CODE
 0002:00000000 00000004H .data                   DATA
 0002:00000008 000009e0H .bss                    DATA
 0003:00000000 00000118H .rsrc$01                DATA
 0003:00000120 000009c8H .rsrc$02                DATA

  Address         Publics by Value              Rva+Base     Lib:Object

 0001:00000000       __imp_@__vba@0636B2F0      00401000     load1.OBJ
 0001:00000000       __imp____vba@0636B2F0      00401000     load1.OBJ
 0001:00000004       __imp___CIcos              00401004     load1.OBJ
 0001:00000008       __imp___adj_fptan          00401008     load1.OBJ
 0001:0000000c       __imp____vbaFreeVar        0040100c     load1.OBJ
 0001:0000000c       __imp_@__vbaFreeVar        0040100c     load1.OBJ
 0001:00000010       __imp____vbaEnd            00401010     load1.OBJ
 0001:00000010       __imp_@__vbaEnd            00401010     load1.OBJ
 0001:00000014       __imp____vbaFreeVarList    00401014     load1.OBJ
 0001:00000014       __imp_@__vbaFreeVarList    00401014     load1.OBJ
 0001:00000018       __imp___adj_fdiv_m64       00401018     load1.OBJ
 0001:0000001c       __imp___adj_fprem1         0040101c     load1.OBJ
 0001:00000020       __imp_@__vbaStrCat         00401020     load1.OBJ
 0001:00000020       __imp____vbaStrCat         00401020     load1.OBJ
 0001:00000024       __imp_@__vbaHresultCheckObj 00401024     load1.OBJ
 0001:00000024       __imp____vbaHresultCheckObj 00401024     load1.OBJ
 0001:00000028       __imp___adj_fdiv_m32       00401028     load1.OBJ
 0001:0000002c       __imp____vbaObjSet         0040102c     load1.OBJ
 0001:0000002c       __imp_@__vbaObjSet         0040102c     load1.OBJ
 0001:00000030       __imp____vba@0636B854      00401030     load1.OBJ
 0001:00000030       __imp_@__vba@0636B854      00401030     load1.OBJ
 0001:00000034       __imp___adj_fdiv_m16i      00401034     load1.OBJ
 0001:00000038       __imp___adj_fdivr_m16i     00401038     load1.OBJ
 0001:0000003c       __imp___CIsin              0040103c     load1.OBJ
 0001:00000040       __imp____vbaChkstk         00401040     load1.OBJ
 0001:00000048       __imp_@__vbaStrCmp         00401048     load1.OBJ
 0001:00000048       __imp____vbaStrCmp         00401048     load1.OBJ
 0001:0000004c       __imp___adj_fpatan         0040104c     load1.OBJ
 0001:00000054       __imp_@__vba@0636BC5C      00401054     load1.OBJ
 0001:00000054       __imp____vba@0636BC5C      00401054     load1.OBJ
 0001:00000058       __imp___CIsqrt             00401058     load1.OBJ
 0001:00000060       __imp____vbaExceptHandler  00401060     load1.OBJ
 0001:00000064       __imp___adj_fprem          00401064     load1.OBJ
 0001:00000068       __imp___adj_fdivr_m64      00401068     load1.OBJ
 0001:0000006c       __imp____vbaFPException    0040106c     load1.OBJ
 0001:00000070       __imp___CIlog              00401070     load1.OBJ
 0001:00000074       __imp_@__vbaNew2           00401074     load1.OBJ
 0001:00000074       __imp____vbaNew2           00401074     load1.OBJ
 0001:00000078       __imp___adj_fdiv_m32i      00401078     load1.OBJ
 0001:0000007c       __imp___adj_fdivr_m32i     0040107c     load1.OBJ
 0001:00000080       __imp_@__vbaFreeStrList    00401080     load1.OBJ
 0001:00000080       __imp____vbaFreeStrList    00401080     load1.OBJ
 0001:00000084       __imp___adj_fdivr_m32      00401084     load1.OBJ
 0001:00000088       __imp___adj_fdiv_r         00401088     load1.OBJ
 0001:00000090       __imp_@__vba@0636BDC8      00401090     load1.OBJ
 0001:00000090       __imp____vba@0636BDC8      00401090     load1.OBJ
 0001:00000094       __imp____vbaVarDup         00401094     load1.OBJ
 0001:00000094       __imp_@__vbaVarDup         00401094     load1.OBJ
 0001:00000098       __imp___CIatan             00401098     load1.OBJ
 0001:0000009c       __imp____vbaStrMove        0040109c     load1.OBJ
 0001:0000009c       __imp_@__vbaStrMove        0040109c     load1.OBJ
 0001:000000a0       __imp___allmul             004010a0     load1.OBJ
 0001:000000a4       __imp___CItan              004010a4     load1.OBJ
 0001:000000a8       __imp___CIexp              004010a8     load1.OBJ
 0001:000000ac       __imp____vbaFreeStr        004010ac     load1.OBJ
 0001:000000ac       __imp_@__vbaFreeStr        004010ac     load1.OBJ
 0001:000000b0       __imp____vbaFreeObj        004010b0     load1.OBJ
 0001:000000b0       __imp_@__vbaFreeObj        004010b0     load1.OBJ
 0001:000000d0       ___vbaChkstk               004010d0     load1.OBJ
 0001:000000d0       VB@TEXT                    004010d0     load1.OBJ
 0001:000000d6       ___vbaExceptHandler        004010d6     load1.OBJ
 0001:000000dc       ___vbaFPException          004010dc     load1.OBJ
 0001:000000e2       __adj_fdiv_m16i            004010e2     load1.OBJ
 0001:000000e8       __adj_fdiv_m32             004010e8     load1.OBJ
 0001:000000ee       __adj_fdiv_m32i            004010ee     load1.OBJ
 0001:000000f4       __adj_fdiv_m64             004010f4     load1.OBJ
 0001:000000fa       __adj_fdiv_r               004010fa     load1.OBJ
 0001:00000100       __adj_fdivr_m16i           00401100     load1.OBJ
 0001:00000106       __adj_fdivr_m32            00401106     load1.OBJ
 0001:0000010c       __adj_fdivr_m32i           0040110c     load1.OBJ
 0001:00000112       __adj_fdivr_m64            00401112     load1.OBJ
 0001:00000118       __adj_fpatan               00401118     load1.OBJ
 0001:0000011e       __adj_fprem                0040111e     load1.OBJ
 0001:00000124       __adj_fprem1               00401124     load1.OBJ
 0001:0000012a       __adj_fptan                0040112a     load1.OBJ
 0001:00000130       __CIatan                   00401130     load1.OBJ
 0001:00000136       __CIcos                    00401136     load1.OBJ
 0001:0000013c       __CIexp                    0040113c     load1.OBJ
 0001:00000142       __CIlog                    00401142     load1.OBJ
 0001:00000148       __CIsin                    00401148     load1.OBJ
 0001:0000014e       __CIsqrt                   0040114e     load1.OBJ
 0001:00000154       __CItan                    00401154     load1.OBJ
 0001:0000015a       __allmul                   0040115a     load1.OBJ
 0001:00000160       @__vba@0636B2F0            00401160     load1.OBJ
 0001:00000160       ___vba@0636B2F0            00401160     load1.OBJ
 0001:00000166       ___vbaFreeVarList          00401166     load1.OBJ
 0001:00000166       @__vbaFreeVarList          00401166     load1.OBJ
 0001:0000016c       @__vbaVarDup               0040116c     load1.OBJ
 0001:0000016c       ___vbaVarDup               0040116c     load1.OBJ
 0001:00000172       @__vba@0636B854            00401172     load1.OBJ
 0001:00000172       ___vba@0636B854            00401172     load1.OBJ
 0001:00000178       @__vbaEnd                  00401178     load1.OBJ
 0001:00000178       ___vbaEnd                  00401178     load1.OBJ
 0001:0000017e       ___vbaFreeVar              0040117e     load1.OBJ
 0001:0000017e       @__vbaFreeVar              0040117e     load1.OBJ
 0001:00000184       ___vbaFreeStrList          00401184     load1.OBJ
 0001:00000184       @__vbaFreeStrList          00401184     load1.OBJ
 0001:0000018a       @__vbaNew2                 0040118a     load1.OBJ
 0001:0000018a       ___vbaNew2                 0040118a     load1.OBJ
 0001:00000190       @__vbaStrCat               00401190     load1.OBJ
 0001:00000190       ___vbaStrCat               00401190     load1.OBJ
 0001:00000196       ___vba@0636BC5C            00401196     load1.OBJ
 0001:00000196       @__vba@0636BC5C            00401196     load1.OBJ
 0001:0000019c       @__vbaStrCmp               0040119c     load1.OBJ
 0001:0000019c       ___vbaStrCmp               0040119c     load1.OBJ
 0001:000001a2       ___vbaFreeObj              004011a2     load1.OBJ
 0001:000001a2       @__vbaFreeObj              004011a2     load1.OBJ
 0001:000001a8       @__vbaFreeStr              004011a8     load1.OBJ
 0001:000001a8       ___vbaFreeStr              004011a8     load1.OBJ
 0001:000001ae       ___vbaHresultCheckObj      004011ae     load1.OBJ
 0001:000001ae       @__vbaHresultCheckObj      004011ae     load1.OBJ
 0001:000001b4       @__vba@0636BDC8            004011b4     load1.OBJ
 0001:000001b4       ___vba@0636BDC8            004011b4     load1.OBJ
 0001:000001ba       @__vbaStrMove              004011ba     load1.OBJ
 0001:000001ba       ___vbaStrMove              004011ba     load1.OBJ
 0001:000001c0       @__vbaObjSet               004011c0     load1.OBJ
 0001:000001c0       ___vbaObjSet               004011c0     load1.OBJ
 0001:000001e0       ___vbaS                    004011e0     load1.OBJ
 0001:00000bdc       ___vba@003B2D84            00401bdc     load1.OBJ
 0001:00001008       ___vba@002E3B24            00402008     load1.OBJ
 0001:00001090       ___vba@002E3B7C            00402090     load1.OBJ
 0001:00001094       ___vba@002E3B84            00402094     load1.OBJ
 0001:000010a0       ___vba@002E3B94            004020a0     load1.OBJ
 0001:000010a8       ___vba@002E3BA0            004020a8     load1.OBJ
 0001:000010b8       ___vba@002E3BB4            004020b8     load1.OBJ
 0001:000010c8       ___vba@002E3BC8            004020c8     load1.OBJ
 0001:000010d8       ___vba@002E3BDC            004020d8     load1.OBJ
 0001:000010e8       ___vba@002E3BF0            004020e8     load1.OBJ
 0001:000010f8       ___vba@002E3C04            004020f8     load1.OBJ
 0001:00001100       ___vba@002E3C10            00402100     load1.OBJ
 0001:00001110       ___vba@002E3C24            00402110     load1.OBJ
 0001:0000114c       ___vba@002E3C64            0040214c     load1.OBJ
 0001:00001150       ___vba@002E3C6C            00402150     load1.OBJ
 0001:00001178       ___vba@002E3C98            00402178     load1.OBJ
 0001:00001188       ___vba@002E3CAC            00402188     load1.OBJ
 0001:00001190       ___vba@002E3CB8            00402190     load1.OBJ
 0001:000011a0       ___vba@002E3CC8            004021a0     load1.OBJ
 0001:000011ac       ___vba@002E3CD8            004021ac     load1.OBJ
 0001:000011b4       ___vba@002E3CE4            004021b4     load1.OBJ
 0001:000011b8       ___vba@002E3CF0            004021b8     load1.OBJ
 0001:000011cc       ___vba@002E3D04            004021cc     load1.OBJ
 0001:000011d0       ___vba@002E3D10            004021d0     load1.OBJ
 0001:000011e0       ___vba@0636B15C            004021e0     load1.OBJ
 0001:000011f0       ___vba@0636B170            004021f0     load1.OBJ
 0001:00001200       ___vba@0636B184            00402200     load1.OBJ
 0001:00001214       ___vba@0636B198            00402214     load1.OBJ
 0001:0000121c       ___vba@0636B1A4            0040221c     load1.OBJ
 0001:00001238       ___vba@0636B1C4            00402238     load1.OBJ
 0001:000012ac       ___vba@0636B23C            004022ac     load1.OBJ
 0001:000012b8       ___vba@0636B24C            004022b8     load1.OBJ
 0001:000012ec       ___vba@0636B284            004022ec     load1.OBJ
 0001:00001308       ___vba@0636B2A4            00402308     load1.OBJ
 0001:00001330       ___vba@0636B2D0            00402330     load1.OBJ
 0001:00001338       ___vba@0636B2E0            00402338     load1.OBJ
 0001:00001344       ___vba@0636B328            00402344     load1.OBJ
 0001:00001358       ___vba@0636B80C            00402358     load1.OBJ
 0001:00001364       ___vba@0636B88C            00402364     load1.OBJ
 0001:00001370       ___vba@0636B8D4            00402370     load1.OBJ
 0001:00001380       ___vba@0636B920            00402380     load1.OBJ
 0001:00001394       ___vba@0636B970            00402394     load1.OBJ
 0001:000013a8       ___vba@0636B9C4            004023a8     load1.OBJ
 0001:000013b4       ___vba@0636BC94            004023b4     load1.OBJ
 0001:000013c0       ___vba@0636BCDC            004023c0     load1.OBJ
 0001:000013d0       ___vba@0636BD28            004023d0     load1.OBJ
 0001:000013e0       ___vba@0636BD74            004023e0     load1.OBJ
 0001:000013f8       ___vba@0636BE00            004023f8     load1.OBJ
 0001:00001408       ___vba@0636BE84            00402408     load1.OBJ
 0001:0000141c       ___vba@003BB58C            0040241c     load1.OBJ
 0001:00001444       ___vba@003BB5B8            00402444     load1.OBJ
 0001:00001450       ___vba@003BB5C8            00402450     load1.OBJ
 0001:0000145c       ___vba@066CB0EC            0040245c     load1.OBJ
 0001:000014a0       VB@BTXT                    004024a0     load1.OBJ
 0001:000014b0       ?Form_Load@load@@AAGXXZ    004024b0 f   load.OBJ
 0001:00001900       VB@ETXT                    00402900     load1.OBJ
 0002:00000000       __adjust_fdiv              00403000     VBAEXE6:natsupp.obj
 0002:00000008       VB@BSS                     00403008     load1.OBJ
 0002:00000010       ___vba@003B3498            00403010     load1.OBJ
 0002:000002d4       ___vba@0636B9B8            004032d4     load1.OBJ
 0002:000002ec       ___vba@066F06D4            004032ec     load1.OBJ

 entry point at        0001:000001e0

 Static symbols

